	.file	"voxlap5.cpp"
	.text
	.type	_ZL10memcasecmpPKvS0_j, @function
_ZL10memcasecmpPKvS0_j:
.LFB0:
	.cfi_startproc
	pushl	%ebp
	.cfi_def_cfa_offset 8
	.cfi_offset 5, -8
	movl	%esp, %ebp
	.cfi_def_cfa_register 5
	subl	$40, %esp
	movl	$0, -24(%ebp)
	jmp	.L2
.L5:
	movl	-24(%ebp), %eax
	movl	8(%ebp), %edx
	addl	%edx, %eax
	movzbl	(%eax), %eax
	movzbl	%al, %eax
	movl	%eax, (%esp)
	call	toupper
	movl	%eax, -20(%ebp)
	movl	-24(%ebp), %eax
	movl	12(%ebp), %edx
	addl	%edx, %eax
	movzbl	(%eax), %eax
	movzbl	%al, %eax
	movl	%eax, (%esp)
	call	toupper
	movl	%eax, -16(%ebp)
	movl	-16(%ebp), %eax
	movl	-20(%ebp), %edx
	movl	%edx, %ecx
	subl	%eax, %ecx
	movl	%ecx, %eax
	movl	%eax, -12(%ebp)
	cmpl	$0, -12(%ebp)
	je	.L3
	movl	-12(%ebp), %eax
	jmp	.L4
.L3:
	addl	$1, -24(%ebp)
.L2:
	movl	-24(%ebp), %eax
	cmpl	16(%ebp), %eax
	setb	%al
	testb	%al, %al
	jne	.L5
	movl	$0, %eax
.L4:
	leave
	.cfi_restore 5
	.cfi_def_cfa 4, 4
	ret
	.cfi_endproc
.LFE0:
	.size	_ZL10memcasecmpPKvS0_j, .-_ZL10memcasecmpPKvS0_j
	.type	_ZL7fcossinfPfS_, @function
_ZL7fcossinfPfS_:
.LFB1:
	.cfi_startproc
	pushl	%ebp
	.cfi_def_cfa_offset 8
	.cfi_offset 5, -8
	movl	%esp, %ebp
	.cfi_def_cfa_register 5
	subl	$4, %esp
	movl	8(%ebp), %eax
	movl	%eax, -4(%ebp)
	flds	-4(%ebp)
#APP
# 69 "include/ksnippits.h" 1
	fsincos

# 0 "" 2
#NO_APP
	movl	12(%ebp), %eax
	fstps	(%eax)
	movl	16(%ebp), %eax
	fstps	(%eax)
	leave
	.cfi_restore 5
	.cfi_def_cfa 4, 4
	ret
	.cfi_endproc
.LFE1:
	.size	_ZL7fcossinfPfS_, .-_ZL7fcossinfPfS_
	.type	_ZL7dcossindPdS_, @function
_ZL7dcossindPdS_:
.LFB2:
	.cfi_startproc
	pushl	%ebp
	.cfi_def_cfa_offset 8
	.cfi_offset 5, -8
	movl	%esp, %ebp
	.cfi_def_cfa_register 5
	subl	$8, %esp
	movl	8(%ebp), %eax
	movl	%eax, -8(%ebp)
	movl	12(%ebp), %eax
	movl	%eax, -4(%ebp)
	fldl	-8(%ebp)
#APP
# 98 "include/ksnippits.h" 1
	fsincos

# 0 "" 2
#NO_APP
	movl	16(%ebp), %eax
	fstpl	(%eax)
	movl	20(%ebp), %eax
	fstpl	(%eax)
	leave
	.cfi_restore 5
	.cfi_def_cfa 4, 4
	ret
	.cfi_endproc
.LFE2:
	.size	_ZL7dcossindPdS_, .-_ZL7dcossindPdS_
	.type	_ZL4ftolfPl, @function
_ZL4ftolfPl:
.LFB3:
	.cfi_startproc
	pushl	%ebp
	.cfi_def_cfa_offset 8
	.cfi_offset 5, -8
	movl	%esp, %ebp
	.cfi_def_cfa_register 5
	flds	8(%ebp)
	movl	12(%ebp), %eax
#APP
# 126 "include/ksnippits.h" 1
	fistpl	(%eax)
# 0 "" 2
#NO_APP
	fstp	%st(0)
	popl	%ebp
	.cfi_restore 5
	.cfi_def_cfa 4, 4
	ret
	.cfi_endproc
.LFE3:
	.size	_ZL4ftolfPl, .-_ZL4ftolfPl
	.type	_ZL4dtoldPl, @function
_ZL4dtoldPl:
.LFB4:
	.cfi_startproc
	pushl	%ebp
	.cfi_def_cfa_offset 8
	.cfi_offset 5, -8
	movl	%esp, %ebp
	.cfi_def_cfa_register 5
	subl	$8, %esp
	movl	8(%ebp), %eax
	movl	%eax, -8(%ebp)
	movl	12(%ebp), %eax
	movl	%eax, -4(%ebp)
	fldl	-8(%ebp)
	movl	16(%ebp), %eax
#APP
# 151 "include/ksnippits.h" 1
	fistpl	(%eax)
# 0 "" 2
#NO_APP
	fstp	%st(0)
	leave
	.cfi_restore 5
	.cfi_def_cfa 4, 4
	ret
	.cfi_endproc
.LFE4:
	.size	_ZL4dtoldPl, .-_ZL4dtoldPl
	.type	_ZL6dboundddd, @function
_ZL6dboundddd:
.LFB5:
	.cfi_startproc
	pushl	%ebp
	.cfi_def_cfa_offset 8
	.cfi_offset 5, -8
	movl	%esp, %ebp
	.cfi_def_cfa_register 5
	subl	$24, %esp
	movl	8(%ebp), %eax
	movl	%eax, -8(%ebp)
	movl	12(%ebp), %eax
	movl	%eax, -4(%ebp)
	movl	16(%ebp), %eax
	movl	%eax, -16(%ebp)
	movl	20(%ebp), %eax
	movl	%eax, -12(%ebp)
	movl	24(%ebp), %eax
	movl	%eax, -24(%ebp)
	movl	28(%ebp), %eax
	movl	%eax, -20(%ebp)
	fldl	-8(%ebp)
	fldl	-16(%ebp)
	fldl	-24(%ebp)
	fxch	%st(2)
#APP
# 182 "include/ksnippits.h" 1
	fucomi	%st(1), %st
fcmovb	%st(1), %st
fucomi	%st(2), %st
fcmovnb	%st(1), %st
fucom	%st(2)

# 0 "" 2
#NO_APP
	fstp	%st(1)
	fstp	%st(1)
	fstpl	-8(%ebp)
	fldl	-8(%ebp)
	leave
	.cfi_restore 5
	.cfi_def_cfa 4, 4
	ret
	.cfi_endproc
.LFE5:
	.size	_ZL6dboundddd, .-_ZL6dboundddd
	.type	_ZL8mulshr16ll, @function
_ZL8mulshr16ll:
.LFB6:
	.cfi_startproc
	pushl	%ebp
	.cfi_def_cfa_offset 8
	.cfi_offset 5, -8
	movl	%esp, %ebp
	.cfi_def_cfa_register 5
	movl	12(%ebp), %ecx
	movl	8(%ebp), %eax
#APP
# 216 "include/ksnippits.h" 1
	imul	%ecx
shrd	$16, %edx, %eax

# 0 "" 2
#NO_APP
	movl	%eax, 8(%ebp)
	movl	8(%ebp), %eax
	popl	%ebp
	.cfi_restore 5
	.cfi_def_cfa 4, 4
	ret
	.cfi_endproc
.LFE6:
	.size	_ZL8mulshr16ll, .-_ZL8mulshr16ll
	.type	_ZL5mul64ll, @function
_ZL5mul64ll:
.LFB9:
	.cfi_startproc
	pushl	%ebp
	.cfi_def_cfa_offset 8
	.cfi_offset 5, -8
	movl	%esp, %ebp
	.cfi_def_cfa_register 5
	pushl	%esi
	pushl	%ebx
	subl	$24, %esp
	.cfi_offset 6, -12
	.cfi_offset 3, -16
	movl	8(%ebp), %eax
	movl	%eax, -28(%ebp)
	movl	12(%ebp), %edx
	movl	%edx, -32(%ebp)
	movl	-28(%ebp), %eax
	movl	-32(%ebp), %edx
#APP
# 297 "include/ksnippits.h" 1
	imul	%edx 

# 0 "" 2
#NO_APP
	movl	%eax, %ebx
	movl	%edx, %esi
	movl	%ebx, -16(%ebp)
	movl	%esi, -12(%ebp)
	movl	-16(%ebp), %eax
	movl	-12(%ebp), %edx
	addl	$24, %esp
	popl	%ebx
	.cfi_restore 3
	popl	%esi
	.cfi_restore 6
	popl	%ebp
	.cfi_restore 5
	.cfi_def_cfa 4, 4
	ret
	.cfi_endproc
.LFE9:
	.size	_ZL5mul64ll, .-_ZL5mul64ll
	.type	_ZL8shldiv16ll, @function
_ZL8shldiv16ll:
.LFB10:
	.cfi_startproc
	pushl	%ebp
	.cfi_def_cfa_offset 8
	.cfi_offset 5, -8
	movl	%esp, %ebp
	.cfi_def_cfa_register 5
	movl	12(%ebp), %ecx
	movl	8(%ebp), %eax
#APP
# 325 "include/ksnippits.h" 1
	mov	%eax, %edx
shl	$16, %eax
sar	$16, %edx
idiv	%ecx

# 0 "" 2
#NO_APP
	movl	%eax, 8(%ebp)
	movl	8(%ebp), %eax
	popl	%ebp
	.cfi_restore 5
	.cfi_def_cfa 4, 4
	ret
	.cfi_endproc
.LFE10:
	.size	_ZL8shldiv16ll, .-_ZL8shldiv16ll
	.type	_ZL14isshldiv16safell, @function
_ZL14isshldiv16safell:
.LFB11:
	.cfi_startproc
	pushl	%ebp
	.cfi_def_cfa_offset 8
	.cfi_offset 5, -8
	movl	%esp, %ebp
	.cfi_def_cfa_register 5
	movl	8(%ebp), %edx
	movl	12(%ebp), %eax
#APP
# 369 "include/ksnippits.h" 1
	.intel_syntax prefix
test	%edx, %edx
js	short .Lskipneg0
neg	%edx
.Lskipneg0:
sar	%edx, 14
test	%eax, %eax
js	short .Lskipneg1
neg	%eax
.Lskipneg1:
sub	%eax, %edx
shr	%eax, 31
.att_syntax prefix

# 0 "" 2
#NO_APP
	movl	%eax, 12(%ebp)
	movl	12(%ebp), %eax
	popl	%ebp
	.cfi_restore 5
	.cfi_def_cfa 4, 4
	ret
	.cfi_endproc
.LFE11:
	.size	_ZL14isshldiv16safell, .-_ZL14isshldiv16safell
	.type	_ZL9umulshr32ll, @function
_ZL9umulshr32ll:
.LFB12:
	.cfi_startproc
	pushl	%ebp
	.cfi_def_cfa_offset 8
	.cfi_offset 5, -8
	movl	%esp, %ebp
	.cfi_def_cfa_register 5
	movl	8(%ebp), %eax
	movl	12(%ebp), %edx
#APP
# 409 "include/ksnippits.h" 1
	mul	%edx

# 0 "" 2
#NO_APP
	movl	%edx, 12(%ebp)
	movl	12(%ebp), %eax
	popl	%ebp
	.cfi_restore 5
	.cfi_def_cfa 4, 4
	ret
	.cfi_endproc
.LFE12:
	.size	_ZL9umulshr32ll, .-_ZL9umulshr32ll
	.type	_ZL8dmulshr0llll, @function
_ZL8dmulshr0llll:
.LFB14:
	.cfi_startproc
	pushl	%ebp
	.cfi_def_cfa_offset 8
	.cfi_offset 5, -8
	movl	%esp, %ebp
	.cfi_def_cfa_register 5
	movl	12(%ebp), %edx
	movl	8(%ebp), %eax
#APP
# 462 "include/ksnippits.h" 1
	imul	%edx

# 0 "" 2
#NO_APP
	movl	%eax, 8(%ebp)
	movl	20(%ebp), %edx
	movl	16(%ebp), %eax
#APP
# 469 "include/ksnippits.h" 1
	imul	%edx

# 0 "" 2
#NO_APP
	movl	%eax, 16(%ebp)
	movl	16(%ebp), %eax
	movl	8(%ebp), %edx
	addl	%edx, %eax
	popl	%ebp
	.cfi_restore 5
	.cfi_def_cfa 4, 4
	ret
	.cfi_endproc
.LFE14:
	.size	_ZL8dmulshr0llll, .-_ZL8dmulshr0llll
	.type	_ZL9dmulshr22llll, @function
_ZL9dmulshr22llll:
.LFB15:
	.cfi_startproc
	pushl	%ebp
	.cfi_def_cfa_offset 8
	.cfi_offset 5, -8
	movl	%esp, %ebp
	.cfi_def_cfa_register 5
	pushl	%ebx
	.cfi_offset 3, -12
	movl	12(%ebp), %edx
	movl	8(%ebp), %eax
#APP
# 498 "include/ksnippits.h" 1
	imul	%edx

# 0 "" 2
#NO_APP
	movl	%eax, 8(%ebp)
	movl	%edx, 12(%ebp)
	movl	20(%ebp), %edx
	movl	16(%ebp), %eax
#APP
# 505 "include/ksnippits.h" 1
	imul	%edx

# 0 "" 2
#NO_APP
	movl	%eax, 16(%ebp)
	movl	%edx, 20(%ebp)
	movl	8(%ebp), %edx
	movl	12(%ebp), %ecx
	movl	20(%ebp), %ebx
	movl	16(%ebp), %eax
#APP
# 514 "include/ksnippits.h" 1
	add	%edx, %eax
adc	%ecx, %ebx
shrd	$22,  %ebx, %eax

# 0 "" 2
#NO_APP
	movl	%eax, 16(%ebp)
	movl	16(%ebp), %eax
	popl	%ebx
	.cfi_restore 3
	popl	%ebp
	.cfi_restore 5
	.cfi_def_cfa 4, 4
	ret
	.cfi_endproc
.LFE15:
	.size	_ZL9dmulshr22llll, .-_ZL9dmulshr22llll
	.type	_ZL11dmulrethighllll, @function
_ZL11dmulrethighllll:
.LFB16:
	.cfi_startproc
	pushl	%ebp
	.cfi_def_cfa_offset 8
	.cfi_offset 5, -8
	movl	%esp, %ebp
	.cfi_def_cfa_register 5
	pushl	%ebx
	.cfi_offset 3, -12
	movl	20(%ebp), %edx
	movl	16(%ebp), %eax
#APP
# 547 "include/ksnippits.h" 1
	imul	%edx

# 0 "" 2
#NO_APP
	movl	%eax, 16(%ebp)
	movl	%edx, 20(%ebp)
	movl	12(%ebp), %edx
	movl	8(%ebp), %eax
#APP
# 554 "include/ksnippits.h" 1
	imul	%edx

# 0 "" 2
#NO_APP
	movl	%eax, 8(%ebp)
	movl	%edx, 12(%ebp)
	movl	16(%ebp), %edx
	movl	8(%ebp), %ecx
	movl	20(%ebp), %ebx
	movl	12(%ebp), %eax
#APP
# 562 "include/ksnippits.h" 1
	sub	%edx, %ecx
sbb	%ebx, %eax

# 0 "" 2
#NO_APP
	movl	%eax, 12(%ebp)
	movl	12(%ebp), %eax
	popl	%ebx
	.cfi_restore 3
	popl	%ebp
	.cfi_restore 5
	.cfi_def_cfa 4, 4
	ret
	.cfi_endproc
.LFE16:
	.size	_ZL11dmulrethighllll, .-_ZL11dmulrethighllll
	.type	_ZL7copybufPvS_l, @function
_ZL7copybufPvS_l:
.LFB17:
	.cfi_startproc
	pushl	%ebp
	.cfi_def_cfa_offset 8
	.cfi_offset 5, -8
	movl	%esp, %ebp
	.cfi_def_cfa_register 5
	pushl	%edi
	pushl	%esi
	.cfi_offset 7, -12
	.cfi_offset 6, -16
	movl	8(%ebp), %eax
	movl	12(%ebp), %edx
	movl	16(%ebp), %ecx
	movl	%eax, %esi
	movl	%edx, %edi
#APP
# 597 "include/ksnippits.h" 1
	rep	movsl

# 0 "" 2
#NO_APP
	popl	%esi
	.cfi_restore 6
	popl	%edi
	.cfi_restore 7
	popl	%ebp
	.cfi_restore 5
	.cfi_def_cfa 4, 4
	ret
	.cfi_endproc
.LFE17:
	.size	_ZL7copybufPvS_l, .-_ZL7copybufPvS_l
	.type	_ZL8clearbufPvll, @function
_ZL8clearbufPvll:
.LFB18:
	.cfi_startproc
	pushl	%ebp
	.cfi_def_cfa_offset 8
	.cfi_offset 5, -8
	movl	%esp, %ebp
	.cfi_def_cfa_register 5
	pushl	%edi
	.cfi_offset 7, -12
	movl	8(%ebp), %edx
	movl	12(%ebp), %ecx
	movl	16(%ebp), %eax
	movl	%edx, %edi
#APP
# 629 "include/ksnippits.h" 1
	rep	stosl

# 0 "" 2
#NO_APP
	popl	%edi
	.cfi_restore 7
	popl	%ebp
	.cfi_restore 5
	.cfi_def_cfa 4, 4
	ret
	.cfi_endproc
.LFE18:
	.size	_ZL8clearbufPvll, .-_ZL8clearbufPvll
	.type	_ZL5bswapm, @function
_ZL5bswapm:
.LFB19:
	.cfi_startproc
	pushl	%ebp
	.cfi_def_cfa_offset 8
	.cfi_offset 5, -8
	movl	%esp, %ebp
	.cfi_def_cfa_register 5
	movl	8(%ebp), %eax
#APP
# 662 "include/ksnippits.h" 1
	bswap	%eax

# 0 "" 2
#NO_APP
	movl	%eax, 8(%ebp)
	movl	8(%ebp), %eax
	popl	%ebp
	.cfi_restore 5
	.cfi_def_cfa 4, 4
	ret
	.cfi_endproc
.LFE19:
	.size	_ZL5bswapm, .-_ZL5bswapm
	.type	_ZL8clearMMXv, @function
_ZL8clearMMXv:
.LFB20:
	.cfi_startproc
	pushl	%ebp
	.cfi_def_cfa_offset 8
	.cfi_offset 5, -8
	movl	%esp, %ebp
	.cfi_def_cfa_register 5
#APP
# 678 "include/ksnippits.h" 1
	emms
# 0 "" 2
#NO_APP
	popl	%ebp
	.cfi_restore 5
	.cfi_def_cfa 4, 4
	ret
	.cfi_endproc
.LFE20:
	.size	_ZL8clearMMXv, .-_ZL8clearMMXv
	.globl	vx5
	.bss
	.align 32
	.type	vx5, @object
	.size	vx5, 24888
vx5:
	.zero	24888
	.text
	.type	_ZL11mmxcoloraddPl, @function
_ZL11mmxcoloraddPl:
.LFB21:
	.cfi_startproc
	pushl	%ebp
	.cfi_def_cfa_offset 8
	.cfi_offset 5, -8
	movl	%esp, %ebp
	.cfi_def_cfa_register 5
	subl	$4, %esp
	movl	8(%ebp), %eax
	movl	(%eax), %eax
	movl	%eax, -4(%ebp)
	movd	-4(%ebp), %mm0
#APP
# 46 "include/voxflash.h" 1
	paddusb	flashbrival, %mm0

# 0 "" 2
#NO_APP
	movd	%mm0, -4(%ebp)
	movl	8(%ebp), %eax
	movl	-4(%ebp), %edx
	movl	%edx, (%eax)
	leave
	.cfi_restore 5
	.cfi_def_cfa 4, 4
	ret
	.cfi_endproc
.LFE21:
	.size	_ZL11mmxcoloraddPl, .-_ZL11mmxcoloraddPl
	.globl	sptr
	.bss
	.align 32
	.type	sptr, @object
	.size	sptr, 5592404
sptr:
	.zero	5592404
	.local	_ZL4vbuf
	.comm	_ZL4vbuf,4,4
	.local	_ZL4vbit
	.comm	_ZL4vbit,4,4
	.local	_ZL5vbiti
	.comm	_ZL5vbiti,4,4
	.globl	tbuf
	.align 32
	.type	tbuf, @object
	.size	tbuf, 1028
tbuf:
	.zero	1028
	.globl	tbuf2
	.align 32
	.type	tbuf2, @object
	.size	tbuf2, 3072
tbuf2:
	.zero	3072
	.globl	templongbuf
	.align 32
	.type	templongbuf, @object
	.size	templongbuf, 1024
templongbuf:
	.zero	1024
	.local	_ZL6nullst
	.comm	_ZL6nullst,1,1
	.local	_ZL6logint
	.comm	_ZL6logint,2048,32
	.local	_ZL12tempfloatbuf
	.comm	_ZL12tempfloatbuf,1024,32
	.local	_ZL5factr
	.comm	_ZL5factr,2048,32
	.globl	cfasm
	.align 32
	.type	cfasm, @object
	.size	cfasm, 8192
cfasm:
	.zero	8192
	.local	_ZL11xres_voxlap
	.comm	_ZL11xres_voxlap,4,4
	.local	_ZL11yres_voxlap
	.comm	_ZL11yres_voxlap,4,4
	.local	_ZL12bytesperline
	.comm	_ZL12bytesperline,4,4
	.local	_ZL10frameplace
	.comm	_ZL10frameplace,4,4
	.local	_ZL12xres4_voxlap
	.comm	_ZL12xres4_voxlap,4,4
	.globl	ylookup
	.align 32
	.type	ylookup, @object
	.size	ylookup, 3076
ylookup:
	.zero	3076
	.local	_ZL6glipos
	.comm	_ZL6glipos,12,1
	.local	_ZL5gipos
	.comm	_ZL5gipos,12,1
	.local	_ZL5gistr
	.comm	_ZL5gistr,12,1
	.local	_ZL5gihei
	.comm	_ZL5gihei,12,1
	.local	_ZL5gifor
	.comm	_ZL5gifor,12,1
	.local	_ZL4gixs
	.comm	_ZL4gixs,12,1
	.local	_ZL4giys
	.comm	_ZL4giys,12,1
	.local	_ZL4gizs
	.comm	_ZL4gizs,12,1
	.local	_ZL5giadd
	.comm	_ZL5giadd,12,1
	.local	_ZL4gihx
	.comm	_ZL4gihx,4,4
	.local	_ZL4gihy
	.comm	_ZL4gihy,4,4
	.local	_ZL4gihz
	.comm	_ZL4gihz,4,4
	.local	_ZL9gposxfrac
	.comm	_ZL9gposxfrac,8,4
	.local	_ZL9gposyfrac
	.comm	_ZL9gposyfrac,8,4
	.local	_ZL3grd
	.comm	_ZL3grd,4,4
	.local	_ZL5gposz
	.comm	_ZL5gposz,4,4
	.local	_ZL9giforzsgn
	.comm	_ZL9giforzsgn,4,4
	.local	_ZL8gstartz0
	.comm	_ZL8gstartz0,4,4
	.local	_ZL8gstartz1
	.comm	_ZL8gstartz1,4,4
	.local	_ZL5gixyi
	.comm	_ZL5gixyi,8,4
	.local	_ZL7gstartv
	.comm	_ZL7gstartv,4,4
	.globl	backtag
	.align 4
	.type	backtag, @object
	.size	backtag, 4
backtag:
	.zero	4
	.globl	backedup
	.data
	.align 4
	.type	backedup, @object
	.size	backedup, 4
backedup:
	.long	-1
	.globl	bacx0
	.bss
	.align 4
	.type	bacx0, @object
	.size	bacx0, 4
bacx0:
	.zero	4
	.globl	bacy0
	.align 4
	.type	bacy0, @object
	.size	bacy0, 4
bacy0:
	.zero	4
	.globl	bacx1
	.align 4
	.type	bacx1, @object
	.size	bacx1, 4
bacx1:
	.zero	4
	.globl	bacy1
	.align 4
	.type	bacy1, @object
	.size	bacy1, 4
bacy1:
	.zero	4
	.globl	bacsptr
	.align 32
	.type	bacsptr, @object
	.size	bacsptr, 1048576
bacsptr:
	.zero	1048576
	.local	_ZL3gfc
	.comm	_ZL3gfc,32768,32
	.data
	.align 32
	.type	_ZL9gfclookup, @object
	.size	_ZL9gfclookup, 32
_ZL9gfclookup:
	.long	4
	.long	7
	.long	2
	.long	5
	.long	0
	.long	3
	.long	6
	.long	1
	.local	_ZL8flashcnt
	.comm	_ZL8flashcnt,4,4
	.globl	flashbrival
	.bss
	.align 8
	.type	flashbrival, @object
	.size	flashbrival, 8
flashbrival:
	.zero	8
	.local	_ZL4bbuf
	.comm	_ZL4bbuf,32768,32
	.local	_ZL3p2c
	.comm	_ZL3p2c,128,32
	.local	_ZL3p2m
	.comm	_ZL3p2m,128,32
	.local	_ZL3ffx
	.comm	_ZL3ffx,264192,32
	.local	_ZL6ffxptr
	.comm	_ZL6ffxptr,4,4
	.data
	.align 4
	.type	_ZL5xbsox, @object
	.size	_ZL5xbsox, 4
_ZL5xbsox:
	.long	-17
	.local	_ZL5xbsoy
	.comm	_ZL5xbsoy,4,4
	.local	_ZL5xbsof
	.comm	_ZL5xbsof,4,4
	.local	_ZL6xbsbuf
	.comm	_ZL6xbsbuf,1008,32
	.local	_ZL7xbsceil
	.comm	_ZL7xbsceil,128,32
	.local	_ZL7xbsflor
	.comm	_ZL7xbsflor,128,32
	.globl	vlst
	.bss
	.align 32
	.type	vlst, @object
	.size	vlst, 524288
vlst:
	.zero	524288
	.globl	hhead
	.align 32
	.type	hhead, @object
	.size	hhead, 16384
hhead:
	.zero	16384
	.globl	vlstcnt
	.data
	.align 4
	.type	vlstcnt, @object
	.size	vlstcnt, 4
vlstcnt:
	.long	2147483647
	.globl	fstk
	.bss
	.align 32
	.type	fstk, @object
	.size	fstk, 98304
fstk:
	.zero	98304
	.globl	flchk
	.align 32
	.type	flchk, @object
	.size	flchk, 49152
flchk:
	.zero	49152
	.globl	flchkcnt
	.align 4
	.type	flchkcnt, @object
	.size	flchkcnt, 4
flchkcnt:
	.zero	4
	.globl	radar
	.align 4
	.type	radar, @object
	.size	radar, 4
radar:
	.zero	4
	.globl	radarmem
	.align 4
	.type	radarmem, @object
	.size	radarmem, 4
radarmem:
	.zero	4
	.local	_ZL10zbuffermem
	.comm	_ZL10zbuffermem,4,4
	.local	_ZL10zbuffersiz
	.comm	_ZL10zbuffersiz,4,4
	.local	_ZL8angstart
	.comm	_ZL8angstart,16384,32
	.local	_ZL8gscanptr
	.comm	_ZL8gscanptr,4,4
	.local	_ZL8cmprecip
	.comm	_ZL8cmprecip,4224,32
	.local	_ZL3wx0
	.comm	_ZL3wx0,4,4
	.local	_ZL3wy0
	.comm	_ZL3wy0,4,4
	.local	_ZL3wx1
	.comm	_ZL3wx1,4,4
	.local	_ZL3wy1
	.comm	_ZL3wy1,4,4
	.local	_ZL4iwx0
	.comm	_ZL4iwx0,4,4
	.local	_ZL4iwy0
	.comm	_ZL4iwy0,4,4
	.local	_ZL4iwx1
	.comm	_ZL4iwx1,4,4
	.local	_ZL4iwy1
	.comm	_ZL4iwy1,4,4
	.local	_ZL5gcorn
	.comm	_ZL5gcorn,48,32
	.globl	ginor
	.align 32
	.type	ginor, @object
	.size	ginor, 48
ginor:
	.zero	48
	.local	_ZL5lastx
	.comm	_ZL5lastx,4096,32
	.local	_ZL9uurendmem
	.comm	_ZL9uurendmem,8224,32
	.local	_ZL6uurend
	.comm	_ZL6uurend,4,4
	.local	_ZL6skypic
	.comm	_ZL6skypic,4,4
	.local	_ZL7nskypic
	.comm	_ZL7nskypic,4,4
	.local	_ZL6skybpl
	.comm	_ZL6skybpl,4,4
	.local	_ZL7skyysiz
	.comm	_ZL7skyysiz,4,4
	.local	_ZL9skycurlng
	.comm	_ZL9skycurlng,4,4
	.local	_ZL9skycurdir
	.comm	_ZL9skycurdir,4,4
	.local	_ZL9skylngmul
	.comm	_ZL9skylngmul,4,4
	.local	_ZL6skylng
	.comm	_ZL6skylng,4,4
	.globl	skyoff
	.align 4
	.type	skyoff, @object
	.size	skyoff, 4
skyoff:
	.zero	4
	.globl	skyxsiz
	.align 4
	.type	skyxsiz, @object
	.size	skyxsiz, 4
skyxsiz:
	.zero	4
	.globl	skylat
	.align 4
	.type	skylat, @object
	.size	skylat, 4
skylat:
	.zero	4
	.globl	gi
	.align 8
	.type	gi, @object
	.size	gi, 8
gi:
	.zero	8
	.globl	gcsub
	.data
	.align 32
	.type	gcsub, @object
	.size	gcsub, 64
gcsub:
	.long	16711935
	.long	16711935
	.long	16711935
	.long	16711935
	.long	16711935
	.long	16711935
	.long	16711935
	.long	16711935
	.long	16711935
	.long	16711935
	.long	16711935
	.long	16711935
	.long	16711935
	.long	16711935
	.long	16711935
	.long	16711935
	.globl	gylookup
	.bss
	.align 32
	.type	gylookup, @object
	.size	gylookup, 2192
gylookup:
	.zero	2192
	.globl	gmipnum
	.align 4
	.type	gmipnum, @object
	.size	gmipnum, 4
gmipnum:
	.zero	4
	.globl	gpz
	.align 4
	.type	gpz, @object
	.size	gpz, 8
gpz:
	.zero	8
	.globl	gdz
	.align 4
	.type	gdz, @object
	.size	gdz, 8
gdz:
	.zero	8
	.globl	gxmip
	.align 4
	.type	gxmip, @object
	.size	gxmip, 4
gxmip:
	.zero	4
	.globl	gxmax
	.align 4
	.type	gxmax, @object
	.size	gxmax, 4
gxmax:
	.zero	4
	.globl	gixy
	.align 4
	.type	gixy, @object
	.size	gixy, 8
gixy:
	.zero	8
	.globl	gpixy
	.align 4
	.type	gpixy, @object
	.size	gpixy, 4
gpixy:
	.zero	4
	.local	_ZL12gmaxscandist
	.comm	_ZL12gmaxscandist,4,4
	.globl	zbufoff
	.align 4
	.type	zbufoff, @object
	.size	zbufoff, 4
zbufoff:
	.zero	4
	.text
	.type	_ZL7lbound0ll, @function
_ZL7lbound0ll:
.LFB23:
	.cfi_startproc
	pushl	%ebp
	.cfi_def_cfa_offset 8
	.cfi_offset 5, -8
	movl	%esp, %ebp
	.cfi_def_cfa_register 5
	movl	8(%ebp), %edx
	movl	12(%ebp), %eax
	cmpl	%eax, %edx
	ja	.L35
	movl	8(%ebp), %eax
	jmp	.L36
.L35:
	movl	8(%ebp), %eax
	sarl	$31, %eax
	notl	%eax
	andl	12(%ebp), %eax
.L36:
	popl	%ebp
	.cfi_restore 5
	.cfi_def_cfa 4, 4
	ret
	.cfi_endproc
.LFE23:
	.size	_ZL7lbound0ll, .-_ZL7lbound0ll
	.type	_ZL6lboundlll, @function
_ZL6lboundlll:
.LFB24:
	.cfi_startproc
	pushl	%ebp
	.cfi_def_cfa_offset 8
	.cfi_offset 5, -8
	movl	%esp, %ebp
	.cfi_def_cfa_register 5
	movl	12(%ebp), %eax
	subl	%eax, 16(%ebp)
	movl	12(%ebp), %eax
	movl	8(%ebp), %edx
	movl	%edx, %ecx
	subl	%eax, %ecx
	movl	%ecx, %eax
	movl	%eax, %edx
	movl	16(%ebp), %eax
	cmpl	%eax, %edx
	ja	.L38
	movl	8(%ebp), %eax
	jmp	.L39
.L38:
	movl	8(%ebp), %eax
	movl	12(%ebp), %edx
	movl	%edx, %ecx
	subl	%eax, %ecx
	movl	%ecx, %eax
	sarl	$31, %eax
	movl	%eax, %edx
	andl	16(%ebp), %edx
	movl	12(%ebp), %eax
	addl	%edx, %eax
.L39:
	popl	%ebp
	.cfi_restore 5
	.cfi_def_cfa 4, 4
	ret
	.cfi_endproc
.LFE24:
	.size	_ZL6lboundlll, .-_ZL6lboundlll
	.local	_ZL7usintab
	.comm	_ZL7usintab,2560,32
	.type	_ZL11ucossininitv, @function
_ZL11ucossininitv:
.LFB25:
	.cfi_startproc
	pushl	%ebp
	.cfi_def_cfa_offset 8
	.cfi_offset 5, -8
	movl	%esp, %ebp
	.cfi_def_cfa_register 5
	subl	$88, %esp
	movl	$0, -52(%ebp)
	movl	.LC1, %eax
	movl	%eax, _ZL7usintab+4
	movl	$255, -56(%ebp)
	fldl	.LC2
	fstpl	-32(%ebp)
	movl	-56(%ebp), %eax
	negl	%eax
	movl	%eax, -64(%ebp)
	fildl	-64(%ebp)
	fmull	-32(%ebp)
	fstpl	-24(%ebp)
	fldl	-32(%ebp)
	fldl	.LC3
	fmulp	%st, %st(1)
	fstpl	-32(%ebp)
	fldl	-32(%ebp)
	fstpl	(%esp)
	call	sin
	fadd	%st(0), %st
	fstpl	-16(%ebp)
	fldl	-24(%ebp)
	fstpl	(%esp)
	call	sin
	fstpl	-48(%ebp)
	fldl	-24(%ebp)
	faddl	-32(%ebp)
	fstpl	(%esp)
	call	cos
	fmull	-16(%ebp)
	fstpl	-40(%ebp)
	fldl	-16(%ebp)
	fchs
	fldl	-16(%ebp)
	fmulp	%st, %st(1)
	fstpl	-16(%ebp)
	jmp	.L41
.L42:
	fldl	-48(%ebp)
	fstps	-60(%ebp)
	flds	-60(%ebp)
	movl	-56(%ebp), %eax
	fstps	_ZL7usintab+4(,%eax,8)
	fldl	-48(%ebp)
	faddl	-40(%ebp)
	fstpl	-48(%ebp)
	fldl	-48(%ebp)
	fmull	-16(%ebp)
	fldl	-40(%ebp)
	faddp	%st, %st(1)
	fstpl	-40(%ebp)
	movl	-52(%ebp), %eax
	flds	_ZL7usintab+4(,%eax,8)
	movl	-56(%ebp), %eax
	flds	_ZL7usintab+4(,%eax,8)
	fsubrp	%st, %st(1)
	flds	.LC4
	fdivrp	%st, %st(1)
	movl	-56(%ebp), %eax
	fstps	_ZL7usintab(,%eax,8)
	movl	-56(%ebp), %eax
	movl	%eax, -52(%ebp)
	subl	$1, -56(%ebp)
.L41:
	movl	-56(%ebp), %eax
	notl	%eax
	shrl	$31, %eax
	testb	%al, %al
	jne	.L42
	movl	$63, -56(%ebp)
	jmp	.L43
.L44:
	movl	-56(%ebp), %eax
	leal	256(%eax), %ecx
	movl	-56(%ebp), %eax
	movl	_ZL7usintab+4(,%eax,8), %edx
	movl	_ZL7usintab(,%eax,8), %eax
	movl	%eax, _ZL7usintab(,%ecx,8)
	movl	%edx, _ZL7usintab+4(,%ecx,8)
	subl	$1, -56(%ebp)
.L43:
	movl	-56(%ebp), %eax
	notl	%eax
	shrl	$31, %eax
	testb	%al, %al
	jne	.L44
	leave
	.cfi_restore 5
	.cfi_def_cfa 4, 4
	ret
	.cfi_endproc
.LFE25:
	.size	_ZL11ucossininitv, .-_ZL11ucossininitv
	.type	_ZL7ucossinmPf, @function
_ZL7ucossinmPf:
.LFB26:
	.cfi_startproc
	pushl	%ebp
	.cfi_def_cfa_offset 8
	.cfi_offset 5, -8
	movl	%esp, %ebp
	.cfi_def_cfa_register 5
	subl	$32, %esp
	movl	8(%ebp), %eax
	movl	%eax, %edx
	andl	$16777215, %edx
	movl	%edx, -28(%ebp)
	movd	-28(%ebp), %xmm0
	movq	%xmm0, -24(%ebp)
	fildq	-24(%ebp)
	fstps	-4(%ebp)
	shrl	$24, 8(%ebp)
	movl	8(%ebp), %eax
	addl	$64, %eax
	flds	_ZL7usintab(,%eax,8)
	fmuls	-4(%ebp)
	movl	8(%ebp), %eax
	addl	$64, %eax
	flds	_ZL7usintab+4(,%eax,8)
	faddp	%st, %st(1)
	movl	12(%ebp), %eax
	fstps	(%eax)
	movl	12(%ebp), %eax
	leal	4(%eax), %edx
	movl	8(%ebp), %eax
	flds	_ZL7usintab(,%eax,8)
	fmuls	-4(%ebp)
	movl	8(%ebp), %eax
	flds	_ZL7usintab+4(,%eax,8)
	faddp	%st, %st(1)
	fstps	(%edx)
	leave
	.cfi_restore 5
	.cfi_def_cfa 4, 4
	ret
	.cfi_endproc
.LFE26:
	.size	_ZL7ucossinmPf, .-_ZL7ucossinmPf
	.globl	_Z8print4x6llllPKcz
	.type	_Z8print4x6llllPKcz, @function
_Z8print4x6llllPKcz:
.LFB27:
	.cfi_startproc
	pushl	%ebp
	.cfi_def_cfa_offset 8
	.cfi_offset 5, -8
	movl	%esp, %ebp
	.cfi_def_cfa_register 5
	pushl	%ebx
	subl	$340, %esp
	.cfi_offset 3, -12
	movl	24(%ebp), %eax
	movl	%eax, -316(%ebp)
	movl	%gs:20, %eax
	movl	%eax, -12(%ebp)
	xorl	%eax, %eax
	cmpl	$0, -316(%ebp)
	je	.L46
	leal	28(%ebp), %eax
	movl	%eax, -308(%ebp)
	movl	-308(%ebp), %eax
	movl	%eax, 8(%esp)
	movl	-316(%ebp), %eax
	movl	%eax, 4(%esp)
	leal	-292(%ebp), %eax
	movl	%eax, (%esp)
	call	vsprintf
	movl	_ZL12bytesperline, %eax
	imull	12(%ebp), %eax
	movl	8(%ebp), %edx
	sall	$2, %edx
	addl	%eax, %edx
	movl	_ZL10frameplace, %eax
	addl	%edx, %eax
	movl	%eax, 12(%ebp)
	cmpl	$0, 20(%ebp)
	jns	.L48
	movl	$20, -296(%ebp)
	jmp	.L49
.L57:
	leal	-292(%ebp), %eax
	movl	%eax, -304(%ebp)
	movl	12(%ebp), %eax
	movl	%eax, 8(%ebp)
	jmp	.L50
.L56:
	movl	-304(%ebp), %eax
	movzbl	(%eax), %eax
	movsbl	%al, %eax
	movl	_ZL7font4x6(,%eax,4), %edx
	movl	-296(%ebp), %eax
	movl	%edx, %ebx
	movl	%eax, %ecx
	shrl	%cl, %ebx
	movl	%ebx, %eax
	movl	%eax, -300(%ebp)
	movl	-300(%ebp), %eax
	andl	$8, %eax
	testl	%eax, %eax
	je	.L51
	movl	8(%ebp), %eax
	movl	16(%ebp), %edx
	movl	%edx, (%eax)
.L51:
	movl	-300(%ebp), %eax
	andl	$4, %eax
	testl	%eax, %eax
	je	.L52
	movl	8(%ebp), %eax
	addl	$4, %eax
	movl	16(%ebp), %edx
	movl	%edx, (%eax)
.L52:
	movl	-300(%ebp), %eax
	andl	$2, %eax
	testl	%eax, %eax
	je	.L53
	movl	8(%ebp), %eax
	addl	$8, %eax
	movl	16(%ebp), %edx
	movl	%edx, (%eax)
.L53:
	movl	-300(%ebp), %eax
	andl	$1, %eax
	testl	%eax, %eax
	je	.L54
	movl	8(%ebp), %eax
	addl	$12, %eax
	movl	16(%ebp), %edx
	movl	%edx, (%eax)
.L54:
	movl	-304(%ebp), %eax
	movzbl	(%eax), %eax
	cmpb	$9, %al
	jne	.L55
	addl	$32, 8(%ebp)
.L55:
	addl	$1, -304(%ebp)
	addl	$16, 8(%ebp)
.L50:
	movl	-304(%ebp), %eax
	movzbl	(%eax), %eax
	testb	%al, %al
	setne	%al
	testb	%al, %al
	jne	.L56
	movl	_ZL12bytesperline, %eax
	addl	%eax, 12(%ebp)
	subl	$4, -296(%ebp)
.L49:
	movl	-296(%ebp), %eax
	notl	%eax
	shrl	$31, %eax
	testb	%al, %al
	jne	.L57
	jmp	.L46
.L48:
	movl	20(%ebp), %eax
	subl	%eax, 16(%ebp)
	movl	$20, -296(%ebp)
	jmp	.L58
.L64:
	leal	-292(%ebp), %eax
	movl	%eax, -304(%ebp)
	movl	12(%ebp), %eax
	movl	%eax, 8(%ebp)
	jmp	.L59
.L63:
	movl	-304(%ebp), %eax
	movzbl	(%eax), %eax
	movsbl	%al, %eax
	movl	_ZL7font4x6(,%eax,4), %edx
	movl	-296(%ebp), %eax
	movl	%edx, %ebx
	movl	%eax, %ecx
	shrl	%cl, %ebx
	movl	%ebx, %eax
	movl	%eax, -300(%ebp)
	movl	8(%ebp), %eax
	movl	-300(%ebp), %edx
	sall	$28, %edx
	sarl	$31, %edx
	movl	%edx, %ecx
	andl	16(%ebp), %ecx
	movl	20(%ebp), %edx
	addl	%ecx, %edx
	movl	%edx, (%eax)
	movl	8(%ebp), %eax
	addl	$4, %eax
	movl	-300(%ebp), %edx
	sall	$29, %edx
	sarl	$31, %edx
	movl	%edx, %ecx
	andl	16(%ebp), %ecx
	movl	20(%ebp), %edx
	addl	%ecx, %edx
	movl	%edx, (%eax)
	movl	8(%ebp), %eax
	addl	$8, %eax
	movl	-300(%ebp), %edx
	sall	$30, %edx
	sarl	$31, %edx
	movl	%edx, %ecx
	andl	16(%ebp), %ecx
	movl	20(%ebp), %edx
	addl	%ecx, %edx
	movl	%edx, (%eax)
	movl	8(%ebp), %eax
	addl	$12, %eax
	movl	-300(%ebp), %edx
	sall	$31, %edx
	sarl	$31, %edx
	movl	%edx, %ecx
	andl	16(%ebp), %ecx
	movl	20(%ebp), %edx
	addl	%ecx, %edx
	movl	%edx, (%eax)
	movl	-304(%ebp), %eax
	movzbl	(%eax), %eax
	cmpb	$9, %al
	jne	.L60
	movl	$16, -300(%ebp)
	jmp	.L61
.L62:
	movl	-300(%ebp), %eax
	movl	8(%ebp), %edx
	addl	%edx, %eax
	movl	20(%ebp), %edx
	movl	%edx, (%eax)
	addl	$4, -300(%ebp)
.L61:
	cmpl	$47, -300(%ebp)
	setle	%al
	testb	%al, %al
	jne	.L62
	addl	$32, 8(%ebp)
.L60:
	addl	$1, -304(%ebp)
	addl	$16, 8(%ebp)
.L59:
	movl	-304(%ebp), %eax
	movzbl	(%eax), %eax
	testb	%al, %al
	setne	%al
	testb	%al, %al
	jne	.L63
	movl	_ZL12bytesperline, %eax
	addl	%eax, 12(%ebp)
	subl	$4, -296(%ebp)
.L58:
	movl	-296(%ebp), %eax
	notl	%eax
	shrl	$31, %eax
	testb	%al, %al
	jne	.L64
.L46:
	movl	-12(%ebp), %eax
	xorl	%gs:20, %eax
	je	.L66
	call	__stack_chk_fail
.L66:
	addl	$340, %esp
	popl	%ebx
	.cfi_restore 3
	popl	%ebp
	.cfi_restore 5
	.cfi_def_cfa 4, 4
	ret
	.cfi_endproc
.LFE27:
	.size	_Z8print4x6llllPKcz, .-_Z8print4x6llllPKcz
	.globl	_Z8print6x8llllPKcz
	.type	_Z8print6x8llllPKcz, @function
_Z8print6x8llllPKcz:
.LFB28:
	.cfi_startproc
	pushl	%ebp
	.cfi_def_cfa_offset 8
	.cfi_offset 5, -8
	movl	%esp, %ebp
	.cfi_def_cfa_register 5
	subl	$344, %esp
	movl	24(%ebp), %eax
	movl	%eax, -316(%ebp)
	movl	%gs:20, %eax
	movl	%eax, -12(%ebp)
	xorl	%eax, %eax
	cmpl	$0, -316(%ebp)
	je	.L67
	leal	28(%ebp), %eax
	movl	%eax, -312(%ebp)
	movl	-312(%ebp), %eax
	movl	%eax, 8(%esp)
	movl	-316(%ebp), %eax
	movl	%eax, 4(%esp)
	leal	-292(%ebp), %eax
	movl	%eax, (%esp)
	call	vsprintf
	movl	_ZL12bytesperline, %eax
	imull	12(%ebp), %eax
	movl	8(%ebp), %edx
	sall	$2, %edx
	addl	%eax, %edx
	movl	_ZL10frameplace, %eax
	addl	%edx, %eax
	movl	%eax, 12(%ebp)
	cmpl	$0, 20(%ebp)
	jns	.L69
	movl	$1, -300(%ebp)
	jmp	.L70
.L80:
	leal	-292(%ebp), %eax
	movl	%eax, -308(%ebp)
	movl	12(%ebp), %eax
	movl	%eax, 8(%ebp)
	jmp	.L71
.L79:
	movl	-308(%ebp), %eax
	movzbl	(%eax), %eax
	movsbl	%al, %edx
	movl	%edx, %eax
	addl	%eax, %eax
	addl	%edx, %eax
	addl	%eax, %eax
	movl	%eax, %edx
	movl	$_ZL7font6x8, %eax
	addl	%edx, %eax
	movl	%eax, -296(%ebp)
	movl	-296(%ebp), %eax
	movzbl	(%eax), %eax
	movsbl	%al, %eax
	andl	-300(%ebp), %eax
	testl	%eax, %eax
	je	.L72
	movl	8(%ebp), %eax
	movl	16(%ebp), %edx
	movl	%edx, (%eax)
.L72:
	movl	-296(%ebp), %eax
	addl	$1, %eax
	movzbl	(%eax), %eax
	movsbl	%al, %eax
	andl	-300(%ebp), %eax
	testl	%eax, %eax
	je	.L73
	movl	8(%ebp), %eax
	addl	$4, %eax
	movl	16(%ebp), %edx
	movl	%edx, (%eax)
.L73:
	movl	-296(%ebp), %eax
	addl	$2, %eax
	movzbl	(%eax), %eax
	movsbl	%al, %eax
	andl	-300(%ebp), %eax
	testl	%eax, %eax
	je	.L74
	movl	8(%ebp), %eax
	addl	$8, %eax
	movl	16(%ebp), %edx
	movl	%edx, (%eax)
.L74:
	movl	-296(%ebp), %eax
	addl	$3, %eax
	movzbl	(%eax), %eax
	movsbl	%al, %eax
	andl	-300(%ebp), %eax
	testl	%eax, %eax
	je	.L75
	movl	8(%ebp), %eax
	addl	$12, %eax
	movl	16(%ebp), %edx
	movl	%edx, (%eax)
.L75:
	movl	-296(%ebp), %eax
	addl	$4, %eax
	movzbl	(%eax), %eax
	movsbl	%al, %eax
	andl	-300(%ebp), %eax
	testl	%eax, %eax
	je	.L76
	movl	8(%ebp), %eax
	addl	$16, %eax
	movl	16(%ebp), %edx
	movl	%edx, (%eax)
.L76:
	movl	-296(%ebp), %eax
	addl	$5, %eax
	movzbl	(%eax), %eax
	movsbl	%al, %eax
	andl	-300(%ebp), %eax
	testl	%eax, %eax
	je	.L77
	movl	8(%ebp), %eax
	addl	$20, %eax
	movl	16(%ebp), %edx
	movl	%edx, (%eax)
.L77:
	movl	-308(%ebp), %eax
	movzbl	(%eax), %eax
	cmpb	$9, %al
	jne	.L78
	addl	$48, 8(%ebp)
.L78:
	addl	$1, -308(%ebp)
	addl	$24, 8(%ebp)
.L71:
	movl	-308(%ebp), %eax
	movzbl	(%eax), %eax
	testb	%al, %al
	setne	%al
	testb	%al, %al
	jne	.L79
	movl	_ZL12bytesperline, %eax
	addl	%eax, 12(%ebp)
	sall	-300(%ebp)
.L70:
	cmpl	$255, -300(%ebp)
	setle	%al
	testb	%al, %al
	jne	.L80
	jmp	.L67
.L69:
	movl	20(%ebp), %eax
	subl	%eax, 16(%ebp)
	movl	$1, -300(%ebp)
	jmp	.L81
.L87:
	leal	-292(%ebp), %eax
	movl	%eax, -308(%ebp)
	movl	12(%ebp), %eax
	movl	%eax, 8(%ebp)
	jmp	.L82
.L86:
	movl	-308(%ebp), %eax
	movzbl	(%eax), %eax
	movsbl	%al, %edx
	movl	%edx, %eax
	addl	%eax, %eax
	addl	%edx, %eax
	addl	%eax, %eax
	movl	%eax, %edx
	movl	$_ZL7font6x8, %eax
	addl	%edx, %eax
	movl	%eax, -296(%ebp)
	movl	8(%ebp), %eax
	movl	-296(%ebp), %edx
	movzbl	(%edx), %edx
	movsbl	%dl, %edx
	andl	-300(%ebp), %edx
	negl	%edx
	sarl	$31, %edx
	movl	%edx, %ecx
	andl	16(%ebp), %ecx
	movl	20(%ebp), %edx
	addl	%ecx, %edx
	movl	%edx, (%eax)
	movl	8(%ebp), %eax
	addl	$4, %eax
	movl	-296(%ebp), %edx
	addl	$1, %edx
	movzbl	(%edx), %edx
	movsbl	%dl, %edx
	andl	-300(%ebp), %edx
	negl	%edx
	sarl	$31, %edx
	movl	%edx, %ecx
	andl	16(%ebp), %ecx
	movl	20(%ebp), %edx
	addl	%ecx, %edx
	movl	%edx, (%eax)
	movl	8(%ebp), %eax
	addl	$8, %eax
	movl	-296(%ebp), %edx
	addl	$2, %edx
	movzbl	(%edx), %edx
	movsbl	%dl, %edx
	andl	-300(%ebp), %edx
	negl	%edx
	sarl	$31, %edx
	movl	%edx, %ecx
	andl	16(%ebp), %ecx
	movl	20(%ebp), %edx
	addl	%ecx, %edx
	movl	%edx, (%eax)
	movl	8(%ebp), %eax
	addl	$12, %eax
	movl	-296(%ebp), %edx
	addl	$3, %edx
	movzbl	(%edx), %edx
	movsbl	%dl, %edx
	andl	-300(%ebp), %edx
	negl	%edx
	sarl	$31, %edx
	movl	%edx, %ecx
	andl	16(%ebp), %ecx
	movl	20(%ebp), %edx
	addl	%ecx, %edx
	movl	%edx, (%eax)
	movl	8(%ebp), %eax
	addl	$16, %eax
	movl	-296(%ebp), %edx
	addl	$4, %edx
	movzbl	(%edx), %edx
	movsbl	%dl, %edx
	andl	-300(%ebp), %edx
	negl	%edx
	sarl	$31, %edx
	movl	%edx, %ecx
	andl	16(%ebp), %ecx
	movl	20(%ebp), %edx
	addl	%ecx, %edx
	movl	%edx, (%eax)
	movl	8(%ebp), %eax
	addl	$20, %eax
	movl	-296(%ebp), %edx
	addl	$5, %edx
	movzbl	(%edx), %edx
	movsbl	%dl, %edx
	andl	-300(%ebp), %edx
	negl	%edx
	sarl	$31, %edx
	movl	%edx, %ecx
	andl	16(%ebp), %ecx
	movl	20(%ebp), %edx
	addl	%ecx, %edx
	movl	%edx, (%eax)
	movl	-308(%ebp), %eax
	movzbl	(%eax), %eax
	cmpb	$9, %al
	jne	.L83
	movl	$24, -304(%ebp)
	jmp	.L84
.L85:
	movl	-304(%ebp), %eax
	movl	8(%ebp), %edx
	addl	%edx, %eax
	movl	20(%ebp), %edx
	movl	%edx, (%eax)
	addl	$4, -304(%ebp)
.L84:
	cmpl	$71, -304(%ebp)
	setle	%al
	testb	%al, %al
	jne	.L85
	addl	$48, 8(%ebp)
.L83:
	addl	$1, -308(%ebp)
	addl	$24, 8(%ebp)
.L82:
	movl	-308(%ebp), %eax
	movzbl	(%eax), %eax
	testb	%al, %al
	setne	%al
	testb	%al, %al
	jne	.L86
	movl	_ZL12bytesperline, %eax
	addl	%eax, 12(%ebp)
	sall	-300(%ebp)
.L81:
	cmpl	$255, -300(%ebp)
	setle	%al
	testb	%al, %al
	jne	.L87
.L67:
	movl	-12(%ebp), %eax
	xorl	%gs:20, %eax
	je	.L89
	call	__stack_chk_fail
.L89:
	leave
	.cfi_restore 5
	.cfi_def_cfa 4, 4
	ret
	.cfi_endproc
.LFE28:
	.size	_Z8print6x8llllPKcz, .-_Z8print6x8llllPKcz
	.local	_ZL6gkrand
	.comm	_ZL6gkrand,4,4
	.globl	_Z8colorjitll
	.type	_Z8colorjitll, @function
_Z8colorjitll:
.LFB29:
	.cfi_startproc
	pushl	%ebp
	.cfi_def_cfa_offset 8
	.cfi_offset 5, -8
	movl	%esp, %ebp
	.cfi_def_cfa_register 5
	movl	_ZL6gkrand, %eax
	imull	$27584621, %eax, %eax
	addl	$1, %eax
	movl	%eax, _ZL6gkrand
	movl	_ZL6gkrand, %eax
	andl	12(%ebp), %eax
	xorl	8(%ebp), %eax
	popl	%ebp
	.cfi_restore 5
	.cfi_def_cfa 4, 4
	ret
	.cfi_endproc
.LFE29:
	.size	_Z8colorjitll, .-_Z8colorjitll
	.globl	_Z8lightvoxl
	.type	_Z8lightvoxl, @function
_Z8lightvoxl:
.LFB30:
	.cfi_startproc
	pushl	%ebp
	.cfi_def_cfa_offset 8
	.cfi_offset 5, -8
	movl	%esp, %ebp
	.cfi_def_cfa_register 5
	subl	$16, %esp
	movl	8(%ebp), %eax
	shrl	$24, %eax
	movl	%eax, -12(%ebp)
	movl	8(%ebp), %eax
	sarl	$16, %eax
	andl	$255, %eax
	imull	-12(%ebp), %eax
	sarl	$7, %eax
	movl	$255, %edx
	cmpl	$255, %eax
	cmovg	%edx, %eax
	movl	%eax, -8(%ebp)
	movl	8(%ebp), %eax
	sarl	$8, %eax
	andl	$255, %eax
	imull	-12(%ebp), %eax
	sarl	$7, %eax
	movl	$255, %edx
	cmpl	$255, %eax
	cmovg	%edx, %eax
	movl	%eax, -4(%ebp)
	movl	8(%ebp), %eax
	andl	$255, %eax
	imull	-12(%ebp), %eax
	sarl	$7, %eax
	movl	$255, %edx
	cmpl	$255, %eax
	cmovg	%edx, %eax
	movl	%eax, -12(%ebp)
	movl	-8(%ebp), %eax
	movl	%eax, %edx
	sall	$16, %edx
	movl	-4(%ebp), %eax
	sall	$8, %eax
	addl	%eax, %edx
	movl	-12(%ebp), %eax
	addl	%edx, %eax
	leave
	.cfi_restore 5
	.cfi_def_cfa 4, 4
	ret
	.cfi_endproc
.LFE30:
	.size	_Z8lightvoxl, .-_Z8lightvoxl
	.globl	_Z8colormulll
	.type	_Z8colormulll, @function
_Z8colormulll:
.LFB31:
	.cfi_startproc
	pushl	%ebp
	.cfi_def_cfa_offset 8
	.cfi_offset 5, -8
	movl	%esp, %ebp
	.cfi_def_cfa_register 5
	subl	$16, %esp
	movl	8(%ebp), %eax
	sarl	$16, %eax
	andl	$255, %eax
	imull	12(%ebp), %eax
	sarl	$8, %eax
	movl	%eax, -12(%ebp)
	cmpl	$255, -12(%ebp)
	jle	.L95
	movl	$255, -12(%ebp)
.L95:
	movl	8(%ebp), %eax
	sarl	$8, %eax
	andl	$255, %eax
	imull	12(%ebp), %eax
	sarl	$8, %eax
	movl	%eax, -8(%ebp)
	cmpl	$255, -8(%ebp)
	jle	.L96
	movl	$255, -8(%ebp)
.L96:
	movl	8(%ebp), %eax
	andl	$255, %eax
	imull	12(%ebp), %eax
	sarl	$8, %eax
	movl	%eax, -4(%ebp)
	cmpl	$255, -4(%ebp)
	jle	.L97
	movl	$255, -4(%ebp)
.L97:
	movl	8(%ebp), %eax
	movl	%eax, %edx
	andl	$-16777216, %edx
	movl	-12(%ebp), %eax
	sall	$16, %eax
	addl	%eax, %edx
	movl	-8(%ebp), %eax
	sall	$8, %eax
	addl	%eax, %edx
	movl	-4(%ebp), %eax
	addl	%edx, %eax
	leave
	.cfi_restore 5
	.cfi_def_cfa 4, 4
	ret
	.cfi_endproc
.LFE31:
	.size	_Z8colormulll, .-_Z8colormulll
	.globl	_Z10curcolfuncP8lpoint3d
	.type	_Z10curcolfuncP8lpoint3d, @function
_Z10curcolfuncP8lpoint3d:
.LFB32:
	.cfi_startproc
	pushl	%ebp
	.cfi_def_cfa_offset 8
	.cfi_offset 5, -8
	movl	%esp, %ebp
	.cfi_def_cfa_register 5
	movl	vx5+19612, %eax
	popl	%ebp
	.cfi_restore 5
	.cfi_def_cfa 4, 4
	ret
	.cfi_endproc
.LFE32:
	.size	_Z10curcolfuncP8lpoint3d, .-_Z10curcolfuncP8lpoint3d
	.globl	_Z12floorcolfuncP8lpoint3d
	.type	_Z12floorcolfuncP8lpoint3d, @function
_Z12floorcolfuncP8lpoint3d:
.LFB33:
	.cfi_startproc
	pushl	%ebp
	.cfi_def_cfa_offset 8
	.cfi_offset 5, -8
	movl	%esp, %ebp
	.cfi_def_cfa_register 5
	subl	$16, %esp
	movl	8(%ebp), %eax
	movl	4(%eax), %eax
	movl	%eax, %edx
	sall	$10, %edx
	movl	8(%ebp), %eax
	movl	(%eax), %eax
	addl	%edx, %eax
	movl	sptr(,%eax,4), %eax
	movl	%eax, -4(%ebp)
	jmp	.L102
.L105:
	movl	-4(%ebp), %eax
	movzbl	(%eax), %eax
	movsbl	%al, %eax
	sall	$2, %eax
	addl	%eax, -4(%ebp)
.L102:
	movl	8(%ebp), %eax
	movl	8(%eax), %edx
	movl	-4(%ebp), %eax
	addl	$2, %eax
	movzbl	(%eax), %eax
	movsbl	%al, %eax
	cmpl	%eax, %edx
	jle	.L103
	movl	-4(%ebp), %eax
	movzbl	(%eax), %eax
	testb	%al, %al
	je	.L103
	movl	$1, %eax
	jmp	.L104
.L103:
	movl	$0, %eax
.L104:
	testb	%al, %al
	jne	.L105
	movl	-4(%ebp), %eax
	movl	4(%eax), %eax
	leave
	.cfi_restore 5
	.cfi_def_cfa 4, 4
	ret
	.cfi_endproc
.LFE33:
	.size	_Z12floorcolfuncP8lpoint3d, .-_Z12floorcolfuncP8lpoint3d
	.globl	_Z10jitcolfuncP8lpoint3d
	.type	_Z10jitcolfuncP8lpoint3d, @function
_Z10jitcolfuncP8lpoint3d:
.LFB34:
	.cfi_startproc
	pushl	%ebp
	.cfi_def_cfa_offset 8
	.cfi_offset 5, -8
	movl	%esp, %ebp
	.cfi_def_cfa_register 5
	subl	$8, %esp
	movl	vx5+19636, %edx
	movl	vx5+19612, %eax
	movl	%edx, 4(%esp)
	movl	%eax, (%esp)
	call	_Z8colorjitll
	leave
	.cfi_restore 5
	.cfi_def_cfa 4, 4
	ret
	.cfi_endproc
.LFE34:
	.size	_Z10jitcolfuncP8lpoint3d, .-_Z10jitcolfuncP8lpoint3d
	.data
	.align 32
	.type	_ZL11manycolukup, @object
	.size	_ZL11manycolukup, 256
_ZL11manycolukup:
	.long	0
	.long	1
	.long	2
	.long	5
	.long	10
	.long	15
	.long	21
	.long	29
	.long	37
	.long	47
	.long	57
	.long	67
	.long	79
	.long	90
	.long	103
	.long	115
	.long	127
	.long	140
	.long	152
	.long	165
	.long	176
	.long	188
	.long	198
	.long	208
	.long	218
	.long	226
	.long	234
	.long	240
	.long	245
	.long	250
	.long	253
	.long	254
	.long	255
	.long	254
	.long	253
	.long	250
	.long	245
	.long	240
	.long	234
	.long	226
	.long	218
	.long	208
	.long	198
	.long	188
	.long	176
	.long	165
	.long	152
	.long	140
	.long	128
	.long	115
	.long	103
	.long	90
	.long	79
	.long	67
	.long	57
	.long	47
	.long	37
	.long	29
	.long	21
	.long	15
	.long	10
	.long	5
	.long	2
	.long	1
	.text
	.globl	_Z11manycolfuncP8lpoint3d
	.type	_Z11manycolfuncP8lpoint3d, @function
_Z11manycolfuncP8lpoint3d:
.LFB35:
	.cfi_startproc
	pushl	%ebp
	.cfi_def_cfa_offset 8
	.cfi_offset 5, -8
	movl	%esp, %ebp
	.cfi_def_cfa_register 5
	movl	8(%ebp), %eax
	movl	(%eax), %eax
	andl	$63, %eax
	movl	_ZL11manycolukup(,%eax,4), %eax
	movl	%eax, %edx
	sall	$16, %edx
	movl	8(%ebp), %eax
	movl	4(%eax), %eax
	andl	$63, %eax
	movl	_ZL11manycolukup(,%eax,4), %eax
	sall	$8, %eax
	addl	%eax, %edx
	movl	8(%ebp), %eax
	movl	8(%eax), %eax
	andl	$63, %eax
	movl	_ZL11manycolukup(,%eax,4), %eax
	addl	%edx, %eax
	addl	$-2147483648, %eax
	popl	%ebp
	.cfi_restore 5
	.cfi_def_cfa 4, 4
	ret
	.cfi_endproc
.LFE35:
	.size	_Z11manycolfuncP8lpoint3d, .-_Z11manycolfuncP8lpoint3d
	.globl	_Z10sphcolfuncP8lpoint3d
	.type	_Z10sphcolfuncP8lpoint3d, @function
_Z10sphcolfuncP8lpoint3d:
.LFB36:
	.cfi_startproc
	pushl	%ebp
	.cfi_def_cfa_offset 8
	.cfi_offset 5, -8
	movl	%esp, %ebp
	.cfi_def_cfa_register 5
	subl	$56, %esp
	movl	8(%ebp), %eax
	movl	(%eax), %edx
	movl	8(%ebp), %eax
	movl	4(%eax), %eax
	addl	%eax, %edx
	movl	8(%ebp), %eax
	movl	8(%eax), %eax
	addl	%eax, %edx
	movl	vx5+19632, %eax
	movl	%edx, %ecx
	subl	%eax, %ecx
	movl	%ecx, %eax
	movl	%eax, -32(%ebp)
	fildl	-32(%ebp)
	flds	vx5+19752
	fmulp	%st, %st(1)
	fstpl	(%esp)
	call	sin
	fldl	.LC5
	fmulp	%st, %st(1)
	fstps	-28(%ebp)
	flds	-28(%ebp)
	leal	-12(%ebp), %eax
	movl	%eax, 4(%esp)
	fstps	(%esp)
	call	_ZL4ftolfPl
	movl	-12(%ebp), %eax
	subl	$-128, %eax
	movl	%eax, %edx
	sall	$24, %edx
	movl	vx5+19612, %eax
	andl	$16777215, %eax
	orl	%edx, %eax
	leave
	.cfi_restore 5
	.cfi_def_cfa 4, 4
	ret
	.cfi_endproc
.LFE36:
	.size	_Z10sphcolfuncP8lpoint3d, .-_Z10sphcolfuncP8lpoint3d
	.local	_ZL2wx
	.comm	_ZL2wx,1024,32
	.local	_ZL2wy
	.comm	_ZL2wy,1024,32
	.local	_ZL2wz
	.comm	_ZL2wz,1024,32
	.local	_ZL2vx
	.comm	_ZL2vx,1024,32
	.local	_ZL2vy
	.comm	_ZL2vy,1024,32
	.local	_ZL2vz
	.comm	_ZL2vz,1024,32
	.globl	_Z11woodcolfuncP8lpoint3d
	.type	_Z11woodcolfuncP8lpoint3d, @function
_Z11woodcolfuncP8lpoint3d:
.LFB37:
	.cfi_startproc
	pushl	%ebp
	.cfi_def_cfa_offset 8
	.cfi_offset 5, -8
	movl	%esp, %ebp
	.cfi_def_cfa_register 5
	pushl	%esi
	pushl	%ebx
	subl	$112, %esp
	.cfi_offset 6, -12
	.cfi_offset 3, -16
	movl	$_ZL2wx, %eax
	movl	(%eax), %eax
	testl	%eax, %eax
	jne	.L114
	movl	$0, -56(%ebp)
	jmp	.L115
.L116:
	movl	-56(%ebp), %ebx
	call	rand
	movl	%eax, -80(%ebp)
	fildl	-80(%ebp)
	flds	.LC6
	fdivrp	%st, %st(1)
	flds	.LC7
	fsubrp	%st, %st(1)
	flds	.LC8
	fmulp	%st, %st(1)
	flds	.LC7
	fmulp	%st, %st(1)
	fstps	_ZL2wx(,%ebx,4)
	movl	-56(%ebp), %ebx
	call	rand
	movl	%eax, -80(%ebp)
	fildl	-80(%ebp)
	flds	.LC6
	fdivrp	%st, %st(1)
	flds	.LC7
	fsubrp	%st, %st(1)
	flds	.LC8
	fmulp	%st, %st(1)
	flds	.LC7
	fmulp	%st, %st(1)
	fstps	_ZL2wy(,%ebx,4)
	movl	-56(%ebp), %ebx
	call	rand
	movl	%eax, -80(%ebp)
	fildl	-80(%ebp)
	flds	.LC6
	fdivrp	%st, %st(1)
	flds	.LC7
	fsubrp	%st, %st(1)
	flds	.LC8
	fmulp	%st, %st(1)
	flds	.LC7
	fmulp	%st, %st(1)
	fstps	_ZL2wz(,%ebx,4)
	call	rand
	movl	%eax, -80(%ebp)
	fildl	-80(%ebp)
	flds	.LC6
	fdivrp	%st, %st(1)
	flds	.LC9
	fmulp	%st, %st(1)
	fld1
	fsubp	%st, %st(1)
	fstps	-48(%ebp)
	call	rand
	movl	%eax, -80(%ebp)
	fildl	-80(%ebp)
	flds	.LC6
	fdivrp	%st, %st(1)
	fldl	.LC11
	fmulp	%st, %st(1)
	fadd	%st(0), %st
	fstps	-44(%ebp)
	leal	-60(%ebp), %eax
	movl	%eax, 8(%esp)
	leal	-64(%ebp), %eax
	movl	%eax, 4(%esp)
	movl	-44(%ebp), %eax
	movl	%eax, (%esp)
	call	_ZL7fcossinfPfS_
	flds	-48(%ebp)
	fmuls	-48(%ebp)
	fld1
	fsubp	%st, %st(1)
	fstpl	(%esp)
	call	sqrt
	fstps	-40(%ebp)
	flds	-64(%ebp)
	fmuls	-40(%ebp)
	fstps	-64(%ebp)
	flds	-60(%ebp)
	fmuls	-40(%ebp)
	fstps	-60(%ebp)
	movl	-56(%ebp), %edx
	movl	-48(%ebp), %eax
	movl	%eax, _ZL2vx(,%edx,4)
	movl	-56(%ebp), %eax
	flds	-60(%ebp)
	fabs
	fstps	_ZL2vy(,%eax,4)
	movl	-56(%ebp), %edx
	movl	-64(%ebp), %eax
	movl	%eax, _ZL2vz(,%edx,4)
	movl	-56(%ebp), %eax
	addl	$1, %eax
	movl	%eax, -56(%ebp)
.L115:
	movl	-56(%ebp), %eax
	cmpl	$255, %eax
	setle	%al
	testb	%al, %al
	jne	.L116
.L114:
	movl	8(%ebp), %eax
	movl	4(%eax), %ebx
	movl	8(%ebp), %eax
	movl	4(%eax), %ecx
	movl	$715827883, %edx
	movl	%ecx, %eax
	imull	%edx
	sarl	$2, %edx
	movl	%ecx, %eax
	sarl	$31, %eax
	subl	%eax, %edx
	movl	%edx, %eax
	addl	%eax, %eax
	addl	%edx, %eax
	sall	$3, %eax
	movl	%ecx, %edx
	subl	%eax, %edx
	movl	%ebx, %eax
	subl	%edx, %eax
	movl	%eax, -36(%ebp)
	movl	-36(%ebp), %ecx
	movl	$715827883, %edx
	movl	%ecx, %eax
	imull	%edx
	sarl	$2, %edx
	movl	%ecx, %eax
	sarl	$31, %eax
	movl	%edx, %ebx
	subl	%eax, %ebx
	movl	-36(%ebp), %ecx
	movl	$715827883, %edx
	movl	%ecx, %eax
	imull	%edx
	sarl	$2, %edx
	movl	%ecx, %eax
	sarl	$31, %eax
	movl	%edx, %ecx
	subl	%eax, %ecx
	movl	%ecx, %eax
	imull	%ebx, %eax
	imull	$51721, %eax, %ebx
	movl	8(%ebp), %eax
	movl	8(%eax), %ecx
	movl	$715827883, %edx
	movl	%ecx, %eax
	imull	%edx
	sarl	$2, %edx
	movl	%ecx, %eax
	sarl	$31, %eax
	movl	%edx, %ecx
	subl	%eax, %ecx
	movl	%ecx, %eax
	imull	$357, %eax, %eax
	leal	(%ebx,%eax), %ecx
	movl	$-1307163959, %edx
	movl	%ecx, %eax
	imull	%edx
	leal	(%edx,%ecx), %eax
	movl	%eax, %edx
	sarl	$5, %edx
	movl	%ecx, %eax
	sarl	$31, %eax
	movl	%edx, %ebx
	subl	%eax, %ebx
	movl	%ebx, %eax
	movl	%eax, -32(%ebp)
	movl	-32(%ebp), %eax
	imull	$46, %eax, %eax
	movl	%ecx, %esi
	subl	%eax, %esi
	movl	%esi, %eax
	movl	%eax, -32(%ebp)
	movl	8(%ebp), %eax
	movl	(%eax), %edx
	movl	-32(%ebp), %eax
	leal	(%edx,%eax), %ebx
	movl	8(%ebp), %eax
	movl	(%eax), %edx
	movl	-32(%ebp), %eax
	leal	(%edx,%eax), %ecx
	movl	$-1307163959, %edx
	movl	%ecx, %eax
	imull	%edx
	leal	(%edx,%ecx), %eax
	movl	%eax, %edx
	sarl	$5, %edx
	movl	%ecx, %eax
	sarl	$31, %eax
	movl	%edx, %esi
	subl	%eax, %esi
	movl	%esi, %eax
	imull	$46, %eax, %eax
	movl	%ecx, %edx
	subl	%eax, %edx
	movl	%edx, %eax
	movl	%ebx, %ecx
	subl	%eax, %ecx
	movl	%ecx, %eax
	subl	-32(%ebp), %eax
	movl	%eax, -28(%ebp)
	movl	8(%ebp), %eax
	movl	(%eax), %edx
	movl	$-23, %eax
	subl	-28(%ebp), %eax
	addl	%edx, %eax
	movl	%eax, -24(%ebp)
	movl	8(%ebp), %eax
	movl	4(%eax), %edx
	movl	$-12, %eax
	subl	-36(%ebp), %eax
	addl	%edx, %eax
	movl	%eax, -20(%ebp)
	movl	-28(%ebp), %eax
	imull	$429, %eax, %eax
	leal	4695(%eax), %edx
	movl	-36(%ebp), %eax
	imull	$341, %eax, %eax
	addl	$4355, %eax
	xorl	%edx, %eax
	xorl	$13643, %eax
	imull	$2797, %eax, %eax
	andl	$255, %eax
	movl	%eax, -16(%ebp)
	fildl	-24(%ebp)
	movl	-16(%ebp), %eax
	flds	_ZL2wx(,%eax,4)
	fsubrp	%st, %st(1)
	fstps	-64(%ebp)
	fildl	-20(%ebp)
	movl	-16(%ebp), %eax
	flds	_ZL2wy(,%eax,4)
	fsubrp	%st, %st(1)
	fstps	-60(%ebp)
	movl	8(%ebp), %eax
	movl	8(%eax), %ecx
	movl	$715827883, %edx
	movl	%ecx, %eax
	imull	%edx
	sarl	$2, %edx
	movl	%ecx, %eax
	sarl	$31, %eax
	subl	%eax, %edx
	movl	%edx, %eax
	addl	%eax, %eax
	addl	%edx, %eax
	sall	$3, %eax
	movl	%ecx, %edx
	subl	%eax, %edx
	movl	%edx, -80(%ebp)
	fildl	-80(%ebp)
	movl	-16(%ebp), %eax
	flds	_ZL2wz(,%eax,4)
	fsubrp	%st, %st(1)
	fstps	-48(%ebp)
	movl	-16(%ebp), %eax
	flds	_ZL2vx(,%eax,4)
	flds	-64(%ebp)
	fmulp	%st, %st(1)
	movl	-16(%ebp), %eax
	flds	_ZL2vy(,%eax,4)
	flds	-60(%ebp)
	fmulp	%st, %st(1)
	faddp	%st, %st(1)
	movl	-16(%ebp), %eax
	flds	_ZL2vz(,%eax,4)
	fmuls	-48(%ebp)
	faddp	%st, %st(1)
	fstps	-12(%ebp)
	flds	-64(%ebp)
	flds	-64(%ebp)
	fmulp	%st, %st(1)
	flds	-60(%ebp)
	flds	-60(%ebp)
	fmulp	%st, %st(1)
	faddp	%st, %st(1)
	flds	-48(%ebp)
	fmuls	-48(%ebp)
	faddp	%st, %st(1)
	flds	-12(%ebp)
	fmuls	-12(%ebp)
	fsubrp	%st, %st(1)
	fstpl	(%esp)
	call	sqrt
	fstps	-12(%ebp)
	flds	-12(%ebp)
	fstpl	-88(%ebp)
	fildl	-24(%ebp)
	fldl	.LC12
	fmulp	%st, %st(1)
	fildl	-20(%ebp)
	fldl	.LC13
	fmulp	%st, %st(1)
	faddp	%st, %st(1)
	fstpl	(%esp)
	call	sin
	fldl	.LC3
	fmulp	%st, %st(1)
	faddl	-88(%ebp)
	fstps	-12(%ebp)
	flds	-12(%ebp)
	fstpl	-96(%ebp)
	flds	-12(%ebp)
	fstpl	(%esp)
	call	sin
	fldl	.LC14
	fmulp	%st, %st(1)
	fld1
	faddp	%st, %st(1)
	fmull	-96(%ebp)
	fstps	-12(%ebp)
	flds	-12(%ebp)
	fadd	%st(0), %st
	fstpl	(%esp)
	call	sin
	fldl	.LC16
	fmulp	%st, %st(1)
	fstps	-52(%ebp)
	movl	-16(%ebp), %eax
	flds	_ZL2vx(,%eax,4)
	fld1
	fsubp	%st, %st(1)
	fldl	.LC17
	fstpl	8(%esp)
	fstpl	(%esp)
	call	pow
	flds	-52(%ebp)
	fmulp	%st, %st(1)
	fstps	-52(%ebp)
	movl	8(%ebp), %eax
	movl	(%eax), %eax
	cmpl	-28(%ebp), %eax
	je	.L117
	movl	8(%ebp), %eax
	movl	4(%eax), %eax
	cmpl	-36(%ebp), %eax
	jne	.L118
.L117:
	flds	-52(%ebp)
	flds	.LC18
	fsubrp	%st, %st(1)
	fstps	-52(%ebp)
.L118:
	movl	8(%ebp), %eax
	movl	(%eax), %eax
	subl	-28(%ebp), %eax
	cmpl	$45, %eax
	je	.L119
	movl	8(%ebp), %eax
	movl	4(%eax), %eax
	subl	-36(%ebp), %eax
	cmpl	$23, %eax
	jne	.L120
.L119:
	flds	-52(%ebp)
	flds	.LC19
	fsubrp	%st, %st(1)
	fstps	-52(%ebp)
.L120:
	fildl	-16(%ebp)
	flds	.LC20
	fmulp	%st, %st(1)
	fadds	-52(%ebp)
	flds	.LC21
	faddp	%st, %st(1)
	leal	-56(%ebp), %eax
	movl	%eax, 4(%esp)
	fstps	(%esp)
	call	_ZL4ftolfPl
	movl	-56(%ebp), %eax
	leal	(%eax,%eax), %edx
	movl	vx5+19612, %eax
	movl	%edx, 4(%esp)
	movl	%eax, (%esp)
	call	_Z8colormulll
	addl	$112, %esp
	popl	%ebx
	.cfi_restore 3
	popl	%esi
	.cfi_restore 6
	popl	%ebp
	.cfi_restore 5
	.cfi_def_cfa 4, 4
	ret
	.cfi_endproc
.LFE37:
	.size	_Z11woodcolfuncP8lpoint3d, .-_Z11woodcolfuncP8lpoint3d
	.globl	gxsizcache
	.bss
	.align 4
	.type	gxsizcache, @object
	.size	gxsizcache, 4
gxsizcache:
	.zero	4
	.globl	gysizcache
	.align 4
	.type	gysizcache, @object
	.size	gysizcache, 4
gysizcache:
	.zero	4
	.text
	.globl	_Z10pngcolfuncP8lpoint3d
	.type	_Z10pngcolfuncP8lpoint3d, @function
_Z10pngcolfuncP8lpoint3d:
.LFB38:
	.cfi_startproc
	pushl	%ebp
	.cfi_def_cfa_offset 8
	.cfi_offset 5, -8
	movl	%esp, %ebp
	.cfi_def_cfa_register 5
	pushl	%esi
	pushl	%ebx
	subl	$80, %esp
	.cfi_offset 6, -12
	.cfi_offset 3, -16
	movl	vx5+19640, %eax
	testl	%eax, %eax
	jne	.L123
	movl	vx5+19612, %eax
	jmp	.L135
.L123:
	movl	vx5+19664, %eax
	testl	%eax, %eax
	je	.L126
	testl	%eax, %eax
	js	.L125
	cmpl	$2, %eax
	jg	.L125
	jmp	.L136
.L126:
	movl	8(%ebp), %eax
	movl	(%eax), %edx
	movl	vx5+19716, %eax
	movl	%edx, %ecx
	subl	%eax, %ecx
	movl	%ecx, %eax
	movl	%eax, -44(%ebp)
	movl	8(%ebp), %eax
	movl	4(%eax), %edx
	movl	vx5+19720, %eax
	movl	%edx, %esi
	subl	%eax, %esi
	movl	%esi, %eax
	movl	%eax, -40(%ebp)
	movl	8(%ebp), %eax
	movl	8(%eax), %edx
	movl	vx5+19724, %eax
	movl	%edx, %ecx
	subl	%eax, %ecx
	movl	%ecx, %eax
	movl	%eax, -36(%ebp)
	movl	vx5+19728, %eax
	movl	%eax, %edx
	andl	-44(%ebp), %edx
	movl	vx5+19732, %eax
	andl	-40(%ebp), %eax
	addl	%eax, %edx
	movl	vx5+19736, %eax
	andl	-36(%ebp), %eax
	addl	%eax, %edx
	movl	vx5+19656, %eax
	xorl	%edx, %eax
	movl	%eax, -52(%ebp)
	movl	vx5+19740, %eax
	movl	%eax, %edx
	andl	-44(%ebp), %edx
	movl	vx5+19744, %eax
	andl	-40(%ebp), %eax
	addl	%eax, %edx
	movl	vx5+19748, %eax
	andl	-36(%ebp), %eax
	addl	%eax, %edx
	movl	vx5+19660, %eax
	xorl	%edx, %eax
	movl	%eax, -48(%ebp)
	jmp	.L128
.L136:
	movl	8(%ebp), %eax
	movl	(%eax), %eax
	movl	%eax, -64(%ebp)
	fildl	-64(%ebp)
	flds	vx5+19668
	fsubrp	%st, %st(1)
	fstps	-32(%ebp)
	movl	8(%ebp), %eax
	movl	4(%eax), %eax
	movl	%eax, -64(%ebp)
	fildl	-64(%ebp)
	flds	vx5+19672
	fsubrp	%st, %st(1)
	fstps	-28(%ebp)
	movl	8(%ebp), %eax
	movl	8(%eax), %eax
	movl	%eax, -64(%ebp)
	fildl	-64(%ebp)
	flds	vx5+19676
	fsubrp	%st, %st(1)
	fstps	-24(%ebp)
	flds	vx5+19680
	fmuls	-32(%ebp)
	flds	vx5+19684
	fmuls	-28(%ebp)
	faddp	%st, %st(1)
	flds	vx5+19688
	fmuls	-24(%ebp)
	faddp	%st, %st(1)
	fstps	-20(%ebp)
	flds	vx5+19692
	fmuls	-32(%ebp)
	flds	vx5+19696
	fmuls	-28(%ebp)
	faddp	%st, %st(1)
	flds	vx5+19700
	fmuls	-24(%ebp)
	faddp	%st, %st(1)
	fstps	-16(%ebp)
	flds	vx5+19704
	fmuls	-32(%ebp)
	flds	vx5+19708
	fmuls	-28(%ebp)
	faddp	%st, %st(1)
	flds	vx5+19712
	fmuls	-24(%ebp)
	faddp	%st, %st(1)
	fstps	-12(%ebp)
	flds	-20(%ebp)
	flds	-16(%ebp)
	fxch	%st(1)
	fstpl	8(%esp)
	fstpl	(%esp)
	call	atan2
	movl	vx5+19656, %eax
	movl	%eax, -64(%ebp)
	fildl	-64(%ebp)
	fmulp	%st, %st(1)
	fldl	.LC22
	fdivrp	%st, %st(1)
	fstps	-60(%ebp)
	flds	-60(%ebp)
	leal	-52(%ebp), %eax
	movl	%eax, 4(%esp)
	fstps	(%esp)
	call	_ZL4ftolfPl
	movl	vx5+19664, %eax
	cmpl	$1, %eax
	jne	.L129
	leal	-48(%ebp), %eax
	movl	%eax, 4(%esp)
	movl	-12(%ebp), %eax
	movl	%eax, (%esp)
	call	_ZL4ftolfPl
	jmp	.L128
.L129:
	flds	-20(%ebp)
	fmuls	-20(%ebp)
	flds	-16(%ebp)
	fmuls	-16(%ebp)
	faddp	%st, %st(1)
	fstpl	(%esp)
	call	sqrt
	flds	-12(%ebp)
	fxch	%st(1)
	fstpl	8(%esp)
	fstpl	(%esp)
	call	atan2
	fldl	.LC11
	fdivrp	%st, %st(1)
	fldl	.LC3
	faddp	%st, %st(1)
	movl	vx5+19652, %eax
	movl	%eax, -64(%ebp)
	fildl	-64(%ebp)
	fmulp	%st, %st(1)
	fstps	-60(%ebp)
	flds	-60(%ebp)
	leal	-48(%ebp), %eax
	movl	%eax, 4(%esp)
	fstps	(%esp)
	call	_ZL4ftolfPl
	jmp	.L128
.L125:
	movl	8(%ebp), %eax
	movl	(%eax), %eax
	movl	%eax, -64(%ebp)
	fildl	-64(%ebp)
	flds	vx5+19668
	fsubrp	%st, %st(1)
	fstps	-32(%ebp)
	movl	8(%ebp), %eax
	movl	4(%eax), %eax
	movl	%eax, -64(%ebp)
	fildl	-64(%ebp)
	flds	vx5+19672
	fsubrp	%st, %st(1)
	fstps	-28(%ebp)
	movl	8(%ebp), %eax
	movl	8(%eax), %eax
	movl	%eax, -64(%ebp)
	fildl	-64(%ebp)
	flds	vx5+19676
	fsubrp	%st, %st(1)
	fstps	-24(%ebp)
	flds	vx5+19680
	fmuls	-32(%ebp)
	flds	vx5+19684
	fmuls	-28(%ebp)
	faddp	%st, %st(1)
	flds	vx5+19688
	fmuls	-24(%ebp)
	faddp	%st, %st(1)
	leal	-52(%ebp), %eax
	movl	%eax, 4(%esp)
	fstps	(%esp)
	call	_ZL4ftolfPl
	flds	vx5+19692
	fmuls	-32(%ebp)
	flds	vx5+19696
	fmuls	-28(%ebp)
	faddp	%st, %st(1)
	flds	vx5+19700
	fmuls	-24(%ebp)
	faddp	%st, %st(1)
	leal	-48(%ebp), %eax
	movl	%eax, 4(%esp)
	fstps	(%esp)
	call	_ZL4ftolfPl
	nop
.L128:
	movl	-52(%ebp), %eax
	movl	%eax, %edx
	movl	gxsizcache, %eax
	subl	%eax, %edx
	movl	vx5+19648, %eax
	cmpl	%eax, %edx
	jb	.L131
	movl	-52(%ebp), %eax
	testl	%eax, %eax
	jns	.L132
	movl	-52(%ebp), %ecx
	movl	-52(%ebp), %eax
	addl	$1, %eax
	movl	vx5+19648, %ebx
	movl	%eax, %edx
	sarl	$31, %edx
	idivl	%ebx
	movl	%edx, %eax
	movl	%ecx, %edx
	subl	%eax, %edx
	movl	vx5+19648, %eax
	movl	%edx, %esi
	subl	%eax, %esi
	movl	%esi, %eax
	addl	$1, %eax
	movl	%eax, gxsizcache
	jmp	.L131
.L132:
	movl	-52(%ebp), %ecx
	movl	-52(%ebp), %eax
	movl	vx5+19648, %ebx
	movl	%eax, %edx
	sarl	$31, %edx
	idivl	%ebx
	movl	%edx, %eax
	movl	%ecx, %edx
	subl	%eax, %edx
	movl	%edx, %eax
	movl	%eax, gxsizcache
.L131:
	movl	-48(%ebp), %eax
	movl	%eax, %edx
	movl	gysizcache, %eax
	subl	%eax, %edx
	movl	vx5+19652, %eax
	cmpl	%eax, %edx
	jb	.L133
	movl	-48(%ebp), %eax
	testl	%eax, %eax
	jns	.L134
	movl	-48(%ebp), %ecx
	movl	-48(%ebp), %eax
	addl	$1, %eax
	movl	vx5+19652, %ebx
	movl	%eax, %edx
	sarl	$31, %edx
	idivl	%ebx
	movl	%edx, %eax
	movl	%ecx, %edx
	subl	%eax, %edx
	movl	vx5+19652, %eax
	movl	%edx, %ecx
	subl	%eax, %ecx
	movl	%ecx, %eax
	addl	$1, %eax
	movl	%eax, gysizcache
	jmp	.L133
.L134:
	movl	-48(%ebp), %ecx
	movl	-48(%ebp), %eax
	movl	vx5+19652, %ebx
	movl	%eax, %edx
	sarl	$31, %edx
	idivl	%ebx
	movl	%edx, %eax
	movl	%ecx, %esi
	subl	%eax, %esi
	movl	%esi, %eax
	movl	%eax, gysizcache
.L133:
	movl	vx5+19640, %eax
	movl	-48(%ebp), %ecx
	movl	gysizcache, %edx
	subl	%edx, %ecx
	movl	vx5+19644, %edx
	sarl	$2, %edx
	imull	%ecx, %edx
	movl	-52(%ebp), %ebx
	movl	gxsizcache, %ecx
	movl	%ebx, %esi
	subl	%ecx, %esi
	movl	%esi, %ecx
	addl	%ecx, %edx
	sall	$2, %edx
	addl	%edx, %eax
	movl	(%eax), %eax
	andl	$16777215, %eax
	orl	$-2147483648, %eax
.L135:
	addl	$80, %esp
	popl	%ebx
	.cfi_restore 3
	popl	%esi
	.cfi_restore 6
	popl	%ebp
	.cfi_restore 5
	.cfi_def_cfa 4, 4
	ret
	.cfi_endproc
.LFE38:
	.size	_Z10pngcolfuncP8lpoint3d, .-_Z10pngcolfuncP8lpoint3d
	.globl	_Z11hpngcolfuncP7point3d
	.type	_Z11hpngcolfuncP7point3d, @function
_Z11hpngcolfuncP7point3d:
.LFB39:
	.cfi_startproc
	pushl	%ebp
	.cfi_def_cfa_offset 8
	.cfi_offset 5, -8
	movl	%esp, %ebp
	.cfi_def_cfa_register 5
	pushl	%esi
	pushl	%ebx
	subl	$40, %esp
	.cfi_offset 6, -12
	.cfi_offset 3, -16
	movl	8(%ebp), %eax
	flds	(%eax)
	flds	vx5+19668
	fsubrp	%st, %st(1)
	fstps	-20(%ebp)
	movl	8(%ebp), %eax
	flds	4(%eax)
	flds	vx5+19672
	fsubrp	%st, %st(1)
	fstps	-16(%ebp)
	movl	8(%ebp), %eax
	flds	8(%eax)
	flds	vx5+19676
	fsubrp	%st, %st(1)
	fstps	-12(%ebp)
	flds	vx5+19680
	fmuls	-20(%ebp)
	flds	vx5+19684
	fmuls	-16(%ebp)
	faddp	%st, %st(1)
	flds	vx5+19688
	fmuls	-12(%ebp)
	faddp	%st, %st(1)
	leal	-28(%ebp), %eax
	movl	%eax, 4(%esp)
	fstps	(%esp)
	call	_ZL4ftolfPl
	flds	vx5+19692
	fmuls	-20(%ebp)
	flds	vx5+19696
	fmuls	-16(%ebp)
	faddp	%st, %st(1)
	flds	vx5+19700
	fmuls	-12(%ebp)
	faddp	%st, %st(1)
	leal	-24(%ebp), %eax
	movl	%eax, 4(%esp)
	fstps	(%esp)
	call	_ZL4ftolfPl
	movl	-28(%ebp), %eax
	movl	%eax, %edx
	movl	gxsizcache, %eax
	subl	%eax, %edx
	movl	vx5+19648, %eax
	cmpl	%eax, %edx
	jb	.L138
	movl	-28(%ebp), %eax
	testl	%eax, %eax
	jns	.L139
	movl	-28(%ebp), %ecx
	movl	-28(%ebp), %eax
	addl	$1, %eax
	movl	vx5+19648, %ebx
	movl	%eax, %edx
	sarl	$31, %edx
	idivl	%ebx
	movl	%edx, %eax
	movl	%ecx, %edx
	subl	%eax, %edx
	movl	vx5+19648, %eax
	movl	%edx, %ecx
	subl	%eax, %ecx
	movl	%ecx, %eax
	addl	$1, %eax
	movl	%eax, gxsizcache
	jmp	.L138
.L139:
	movl	-28(%ebp), %ecx
	movl	-28(%ebp), %eax
	movl	vx5+19648, %ebx
	movl	%eax, %edx
	sarl	$31, %edx
	idivl	%ebx
	movl	%edx, %eax
	movl	%ecx, %esi
	subl	%eax, %esi
	movl	%esi, %eax
	movl	%eax, gxsizcache
.L138:
	movl	-24(%ebp), %eax
	movl	%eax, %edx
	movl	gysizcache, %eax
	subl	%eax, %edx
	movl	vx5+19652, %eax
	cmpl	%eax, %edx
	jb	.L140
	movl	-24(%ebp), %eax
	testl	%eax, %eax
	jns	.L141
	movl	-24(%ebp), %ecx
	movl	-24(%ebp), %eax
	addl	$1, %eax
	movl	vx5+19652, %ebx
	movl	%eax, %edx
	sarl	$31, %edx
	idivl	%ebx
	movl	%edx, %eax
	movl	%ecx, %edx
	subl	%eax, %edx
	movl	vx5+19652, %eax
	movl	%edx, %ecx
	subl	%eax, %ecx
	movl	%ecx, %eax
	addl	$1, %eax
	movl	%eax, gysizcache
	jmp	.L140
.L141:
	movl	-24(%ebp), %ecx
	movl	-24(%ebp), %eax
	movl	vx5+19652, %ebx
	movl	%eax, %edx
	sarl	$31, %edx
	idivl	%ebx
	movl	%edx, %eax
	movl	%ecx, %esi
	subl	%eax, %esi
	movl	%esi, %eax
	movl	%eax, gysizcache
.L140:
	movl	vx5+19640, %eax
	movl	-24(%ebp), %ecx
	movl	gysizcache, %edx
	subl	%edx, %ecx
	movl	vx5+19644, %edx
	sarl	$2, %edx
	imull	%ecx, %edx
	movl	-28(%ebp), %ebx
	movl	gxsizcache, %ecx
	movl	%ebx, %esi
	subl	%ecx, %esi
	movl	%esi, %ecx
	addl	%ecx, %edx
	sall	$2, %edx
	addl	%edx, %eax
	movl	(%eax), %eax
	sarl	$24, %eax
	addl	$40, %esp
	popl	%ebx
	.cfi_restore 3
	popl	%esi
	.cfi_restore 6
	popl	%ebp
	.cfi_restore 5
	.cfi_def_cfa 4, 4
	ret
	.cfi_endproc
.LFE39:
	.size	_Z11hpngcolfuncP7point3d, .-_Z11hpngcolfuncP7point3d
	.type	_ZL4slngPKc, @function
_ZL4slngPKc:
.LFB40:
	.cfi_startproc
	pushl	%ebp
	.cfi_def_cfa_offset 8
	.cfi_offset 5, -8
	movl	%esp, %ebp
	.cfi_def_cfa_register 5
	pushl	%ebx
	subl	$16, %esp
	.cfi_offset 3, -12
	movl	8(%ebp), %eax
	movl	%eax, -8(%ebp)
	jmp	.L144
.L145:
	movl	-8(%ebp), %eax
	movzbl	(%eax), %eax
	movsbl	%al, %eax
	sall	$2, %eax
	addl	%eax, -8(%ebp)
.L144:
	movl	-8(%ebp), %eax
	movzbl	(%eax), %eax
	testb	%al, %al
	setne	%al
	testb	%al, %al
	jne	.L145
	movl	-8(%ebp), %edx
	movl	8(%ebp), %eax
	movl	%edx, %ecx
	subl	%eax, %ecx
	movl	-8(%ebp), %eax
	addl	$2, %eax
	movzbl	(%eax), %eax
	movsbl	%al, %edx
	movl	-8(%ebp), %eax
	addl	$1, %eax
	movzbl	(%eax), %eax
	movsbl	%al, %eax
	movl	%edx, %ebx
	subl	%eax, %ebx
	movl	%ebx, %eax
	addl	$1, %eax
	sall	$2, %eax
	addl	%ecx, %eax
	addl	$4, %eax
	addl	$16, %esp
	popl	%ebx
	.cfi_restore 3
	popl	%ebp
	.cfi_restore 5
	.cfi_def_cfa 4, 4
	ret
	.cfi_endproc
.LFE40:
	.size	_ZL4slngPKc, .-_ZL4slngPKc
	.globl	_Z10voxdeallocPKc
	.type	_Z10voxdeallocPKc, @function
_Z10voxdeallocPKc:
.LFB41:
	.cfi_startproc
	pushl	%ebp
	.cfi_def_cfa_offset 8
	.cfi_offset 5, -8
	movl	%esp, %ebp
	.cfi_def_cfa_register 5
	pushl	%ebx
	subl	$20, %esp
	.cfi_offset 3, -12
	movl	8(%ebp), %edx
	movl	_ZL4vbuf, %eax
	movl	%edx, %ecx
	subl	%eax, %ecx
	movl	%ecx, %eax
	sarl	$2, %eax
	movl	%eax, -8(%ebp)
	movl	8(%ebp), %eax
	movl	%eax, (%esp)
	call	_ZL4slngPKc
	movl	%eax, %edx
	sarl	$2, %edx
	movl	-8(%ebp), %eax
	addl	%edx, %eax
	movl	%eax, -12(%ebp)
	movl	-8(%ebp), %eax
	movl	-12(%ebp), %edx
	xorl	%edx, %eax
	andl	$-32, %eax
	testl	%eax, %eax
	jne	.L148
	movl	_ZL4vbit, %eax
	movl	-8(%ebp), %edx
	sarl	$5, %edx
	sall	$2, %edx
	addl	%edx, %eax
	movl	_ZL4vbit, %edx
	movl	-8(%ebp), %ecx
	sarl	$5, %ecx
	sall	$2, %ecx
	addl	%ecx, %edx
	movl	(%edx), %edx
	movl	-12(%ebp), %ecx
	andl	$31, %ecx
	movl	_ZL3p2m(,%ecx,4), %ebx
	movl	-8(%ebp), %ecx
	andl	$31, %ecx
	movl	_ZL3p2m(,%ecx,4), %ecx
	xorl	%ebx, %ecx
	notl	%ecx
	andl	%ecx, %edx
	movl	%edx, (%eax)
	jmp	.L147
.L148:
	movl	_ZL4vbit, %eax
	movl	-8(%ebp), %edx
	sarl	$5, %edx
	sall	$2, %edx
	addl	%edx, %eax
	movl	_ZL4vbit, %edx
	movl	-8(%ebp), %ecx
	sarl	$5, %ecx
	sall	$2, %ecx
	addl	%ecx, %edx
	movl	(%edx), %ecx
	movl	-8(%ebp), %edx
	andl	$31, %edx
	movl	_ZL3p2m(,%edx,4), %edx
	andl	%ecx, %edx
	movl	%edx, (%eax)
	sarl	$5, -8(%ebp)
	movl	_ZL4vbit, %eax
	movl	-12(%ebp), %edx
	sarl	$5, %edx
	sall	$2, %edx
	addl	%edx, %eax
	movl	_ZL4vbit, %edx
	movl	-12(%ebp), %ecx
	sarl	$5, %ecx
	sall	$2, %ecx
	addl	%ecx, %edx
	movl	(%edx), %edx
	movl	-12(%ebp), %ecx
	andl	$31, %ecx
	movl	_ZL3p2m(,%ecx,4), %ecx
	notl	%ecx
	andl	%ecx, %edx
	movl	%edx, (%eax)
	sarl	$5, -12(%ebp)
	subl	$1, -12(%ebp)
	jmp	.L150
.L151:
	movl	_ZL4vbit, %eax
	movl	-12(%ebp), %edx
	sall	$2, %edx
	addl	%edx, %eax
	movl	$0, (%eax)
	subl	$1, -12(%ebp)
.L150:
	movl	-12(%ebp), %eax
	cmpl	-8(%ebp), %eax
	setg	%al
	testb	%al, %al
	jne	.L151
.L147:
	addl	$20, %esp
	popl	%ebx
	.cfi_restore 3
	popl	%ebp
	.cfi_restore 5
	.cfi_def_cfa 4, 4
	ret
	.cfi_endproc
.LFE41:
	.size	_Z10voxdeallocPKc, .-_Z10voxdeallocPKc
	.section	.rodata
.LC23:
	.string	"voxalloc: vbuf full"
	.text
	.globl	_Z8voxallocl
	.type	_Z8voxallocl, @function
_Z8voxallocl:
.LFB42:
	.cfi_startproc
	pushl	%ebp
	.cfi_def_cfa_offset 8
	.cfi_offset 5, -8
	movl	%esp, %ebp
	.cfi_def_cfa_register 5
	pushl	%edi
	pushl	%esi
	pushl	%ebx
	subl	$60, %esp
	.cfi_offset 7, -12
	.cfi_offset 6, -16
	.cfi_offset 3, -20
	movl	$0, -40(%ebp)
	sarl	$2, 8(%ebp)
	movl	$33554432, %eax
	subl	8(%ebp), %eax
	movl	%eax, -28(%ebp)
	jmp	.L153
.L164:
	movl	_ZL4vbit, %eax
	movl	_ZL5vbiti, %edx
	sarl	$5, %edx
	sall	$2, %edx
	addl	%edx, %eax
	movl	(%eax), %edx
	movl	_ZL5vbiti, %eax
	movl	$1, %ebx
	movl	%ebx, %esi
	movl	%eax, %ecx
	sall	%cl, %esi
	movl	%esi, %eax
	andl	%edx, %eax
	testl	%eax, %eax
	jne	.L166
.L154:
	movl	_ZL5vbiti, %eax
	movl	%eax, -36(%ebp)
	jmp	.L156
.L157:
	subl	$1, -36(%ebp)
.L156:
	movl	_ZL4vbit, %eax
	movl	-36(%ebp), %edx
	subl	$1, %edx
	sarl	$5, %edx
	sall	$2, %edx
	addl	%edx, %eax
	movl	(%eax), %eax
	movl	-36(%ebp), %edx
	subl	$1, %edx
	movl	$1, %ebx
	movl	%ebx, %esi
	movl	%edx, %ecx
	sall	%cl, %esi
	movl	%esi, %edx
	andl	%edx, %eax
	testl	%eax, %eax
	sete	%al
	testb	%al, %al
	jne	.L157
	movl	8(%ebp), %eax
	movl	-36(%ebp), %edx
	addl	%edx, %eax
	subl	$1, %eax
	movl	%eax, -32(%ebp)
	jmp	.L158
.L160:
	movl	_ZL4vbit, %eax
	movl	-32(%ebp), %edx
	sarl	$5, %edx
	sall	$2, %edx
	addl	%edx, %eax
	movl	(%eax), %edx
	movl	-32(%ebp), %eax
	movl	$1, %ebx
	movl	%ebx, %esi
	movl	%eax, %ecx
	sall	%cl, %esi
	movl	%esi, %eax
	andl	%edx, %eax
	testl	%eax, %eax
	jne	.L167
.L159:
	subl	$1, -32(%ebp)
.L158:
	movl	_ZL5vbiti, %eax
	cmpl	%eax, -32(%ebp)
	setg	%al
	testb	%al, %al
	jne	.L160
	movl	8(%ebp), %eax
	movl	-36(%ebp), %edx
	addl	%edx, %eax
	movl	%eax, _ZL5vbiti
	movl	-36(%ebp), %eax
	movl	%eax, -44(%ebp)
	jmp	.L161
.L162:
	movl	_ZL4vbit, %eax
	movl	-44(%ebp), %edx
	sarl	$5, %edx
	sall	$2, %edx
	addl	%eax, %edx
	movl	_ZL4vbit, %eax
	movl	-44(%ebp), %ecx
	sarl	$5, %ecx
	sall	$2, %ecx
	addl	%ecx, %eax
	movl	(%eax), %ebx
	movl	-44(%ebp), %eax
	movl	$1, %esi
	movl	%esi, %edi
	movl	%eax, %ecx
	sall	%cl, %edi
	movl	%edi, %eax
	orl	%ebx, %eax
	movl	%eax, (%edx)
	addl	$1, -44(%ebp)
.L161:
	movl	_ZL5vbiti, %eax
	cmpl	%eax, -44(%ebp)
	setl	%al
	testb	%al, %al
	jne	.L162
	movl	_ZL4vbuf, %eax
	movl	-36(%ebp), %edx
	sall	$2, %edx
	addl	%edx, %eax
	jmp	.L163
.L166:
	nop
	jmp	.L155
.L167:
	nop
.L155:
	movl	_ZL5vbiti, %edx
	movl	8(%ebp), %eax
	addl	%edx, %eax
	movl	%eax, _ZL5vbiti
.L153:
	movl	_ZL5vbiti, %eax
	cmpl	-28(%ebp), %eax
	setl	%al
	testb	%al, %al
	jne	.L164
	movl	$0, _ZL5vbiti
	addl	$1, -40(%ebp)
	cmpl	$1, -40(%ebp)
	setle	%al
	testb	%al, %al
	jne	.L153
	movl	$.LC23, (%esp)
	call	_Z8evilquitPKc
	movl	$0, %eax
.L163:
	addl	$60, %esp
	popl	%ebx
	.cfi_restore 3
	popl	%esi
	.cfi_restore 6
	popl	%edi
	.cfi_restore 7
	popl	%ebp
	.cfi_restore 5
	.cfi_def_cfa 4, 4
	ret
	.cfi_endproc
.LFE42:
	.size	_Z8voxallocl, .-_Z8voxallocl
	.globl	_Z12isvoxelsolidlll
	.type	_Z12isvoxelsolidlll, @function
_Z12isvoxelsolidlll:
.LFB43:
	.cfi_startproc
	pushl	%ebp
	.cfi_def_cfa_offset 8
	.cfi_offset 5, -8
	movl	%esp, %ebp
	.cfi_def_cfa_register 5
	subl	$16, %esp
	movl	12(%ebp), %eax
	movl	8(%ebp), %edx
	orl	%edx, %eax
	cmpl	$1023, %eax
	jbe	.L169
	movl	$0, %eax
	jmp	.L170
.L169:
	movl	12(%ebp), %eax
	movl	%eax, %edx
	sall	$10, %edx
	movl	8(%ebp), %eax
	addl	%edx, %eax
	movl	sptr(,%eax,4), %eax
	movl	%eax, -4(%ebp)
	jmp	.L174
.L175:
	nop
.L174:
	movl	-4(%ebp), %eax
	addl	$1, %eax
	movzbl	(%eax), %eax
	movsbl	%al, %eax
	cmpl	16(%ebp), %eax
	jle	.L171
	movl	$0, %eax
	jmp	.L170
.L171:
	movl	-4(%ebp), %eax
	movzbl	(%eax), %eax
	testb	%al, %al
	jne	.L172
	movl	$1, %eax
	jmp	.L170
.L172:
	movl	-4(%ebp), %eax
	movzbl	(%eax), %eax
	movsbl	%al, %eax
	sall	$2, %eax
	addl	%eax, -4(%ebp)
	movl	-4(%ebp), %eax
	addl	$3, %eax
	movzbl	(%eax), %eax
	movsbl	%al, %eax
	cmpl	16(%ebp), %eax
	jle	.L175
	movl	$1, %eax
.L170:
	leave
	.cfi_restore 5
	.cfi_def_cfa 4, 4
	ret
	.cfi_endproc
.LFE43:
	.size	_Z12isvoxelsolidlll, .-_Z12isvoxelsolidlll
	.globl	_Z13anyvoxelsolidllll
	.type	_Z13anyvoxelsolidllll, @function
_Z13anyvoxelsolidllll:
.LFB44:
	.cfi_startproc
	pushl	%ebp
	.cfi_def_cfa_offset 8
	.cfi_offset 5, -8
	movl	%esp, %ebp
	.cfi_def_cfa_register 5
	subl	$16, %esp
	movl	12(%ebp), %eax
	movl	8(%ebp), %edx
	orl	%edx, %eax
	cmpl	$1023, %eax
	jbe	.L177
	movl	$0, %eax
	jmp	.L178
.L177:
	movl	12(%ebp), %eax
	movl	%eax, %edx
	sall	$10, %edx
	movl	8(%ebp), %eax
	addl	%edx, %eax
	movl	sptr(,%eax,4), %eax
	movl	%eax, -4(%ebp)
	jmp	.L182
.L183:
	nop
.L182:
	movl	-4(%ebp), %eax
	addl	$1, %eax
	movzbl	(%eax), %eax
	movsbl	%al, %eax
	cmpl	20(%ebp), %eax
	jl	.L179
	movl	$0, %eax
	jmp	.L178
.L179:
	movl	-4(%ebp), %eax
	movzbl	(%eax), %eax
	testb	%al, %al
	jne	.L180
	movl	$1, %eax
	jmp	.L178
.L180:
	movl	-4(%ebp), %eax
	movzbl	(%eax), %eax
	movsbl	%al, %eax
	sall	$2, %eax
	addl	%eax, -4(%ebp)
	movl	-4(%ebp), %eax
	addl	$3, %eax
	movzbl	(%eax), %eax
	movsbl	%al, %eax
	cmpl	16(%ebp), %eax
	jle	.L183
	movl	$1, %eax
.L178:
	leave
	.cfi_restore 5
	.cfi_def_cfa 4, 4
	ret
	.cfi_endproc
.LFE44:
	.size	_Z13anyvoxelsolidllll, .-_Z13anyvoxelsolidllll
	.globl	_Z13anyvoxelemptyllll
	.type	_Z13anyvoxelemptyllll, @function
_Z13anyvoxelemptyllll:
.LFB45:
	.cfi_startproc
	pushl	%ebp
	.cfi_def_cfa_offset 8
	.cfi_offset 5, -8
	movl	%esp, %ebp
	.cfi_def_cfa_register 5
	subl	$16, %esp
	movl	12(%ebp), %eax
	movl	8(%ebp), %edx
	orl	%edx, %eax
	cmpl	$1023, %eax
	jbe	.L185
	movl	$1, %eax
	jmp	.L186
.L185:
	movl	12(%ebp), %eax
	movl	%eax, %edx
	sall	$10, %edx
	movl	8(%ebp), %eax
	addl	%edx, %eax
	movl	sptr(,%eax,4), %eax
	movl	%eax, -4(%ebp)
	jmp	.L190
.L191:
	nop
.L190:
	movl	-4(%ebp), %eax
	addl	$1, %eax
	movzbl	(%eax), %eax
	movsbl	%al, %eax
	cmpl	16(%ebp), %eax
	jle	.L187
	movl	$1, %eax
	jmp	.L186
.L187:
	movl	-4(%ebp), %eax
	movzbl	(%eax), %eax
	testb	%al, %al
	jne	.L188
	movl	$0, %eax
	jmp	.L186
.L188:
	movl	-4(%ebp), %eax
	movzbl	(%eax), %eax
	movsbl	%al, %eax
	sall	$2, %eax
	addl	%eax, -4(%ebp)
	movl	-4(%ebp), %eax
	addl	$3, %eax
	movzbl	(%eax), %eax
	movsbl	%al, %eax
	cmpl	20(%ebp), %eax
	jl	.L191
	movl	$0, %eax
.L186:
	leave
	.cfi_restore 5
	.cfi_def_cfa 4, 4
	ret
	.cfi_endproc
.LFE45:
	.size	_Z13anyvoxelemptyllll, .-_Z13anyvoxelemptyllll
	.globl	_Z9getfloorzlll
	.type	_Z9getfloorzlll, @function
_Z9getfloorzlll:
.LFB46:
	.cfi_startproc
	pushl	%ebp
	.cfi_def_cfa_offset 8
	.cfi_offset 5, -8
	movl	%esp, %ebp
	.cfi_def_cfa_register 5
	subl	$16, %esp
	movl	12(%ebp), %eax
	movl	8(%ebp), %edx
	orl	%edx, %eax
	cmpl	$1023, %eax
	jbe	.L193
	movl	16(%ebp), %eax
	jmp	.L194
.L193:
	movl	12(%ebp), %eax
	movl	%eax, %edx
	sall	$10, %edx
	movl	8(%ebp), %eax
	addl	%edx, %eax
	movl	sptr(,%eax,4), %eax
	movl	%eax, -4(%ebp)
	jmp	.L199
.L201:
	nop
.L199:
	movl	-4(%ebp), %eax
	addl	$1, %eax
	movzbl	(%eax), %eax
	movsbl	%al, %eax
	cmpl	16(%ebp), %eax
	jl	.L195
	movl	-4(%ebp), %eax
	addl	$1, %eax
	movzbl	(%eax), %eax
	movsbl	%al, %eax
	jmp	.L194
.L195:
	movl	-4(%ebp), %eax
	movzbl	(%eax), %eax
	testb	%al, %al
	je	.L200
.L196:
	movl	-4(%ebp), %eax
	movzbl	(%eax), %eax
	movsbl	%al, %eax
	sall	$2, %eax
	addl	%eax, -4(%ebp)
	movl	-4(%ebp), %eax
	addl	$3, %eax
	movzbl	(%eax), %eax
	movsbl	%al, %eax
	cmpl	16(%ebp), %eax
	jle	.L201
	jmp	.L197
.L200:
	nop
.L197:
	movl	16(%ebp), %eax
.L194:
	leave
	.cfi_restore 5
	.cfi_def_cfa 4, 4
	ret
	.cfi_endproc
.LFE46:
	.size	_Z9getfloorzlll, .-_Z9getfloorzlll
	.globl	_Z7getcubelll
	.type	_Z7getcubelll, @function
_Z7getcubelll:
.LFB47:
	.cfi_startproc
	pushl	%ebp
	.cfi_def_cfa_offset 8
	.cfi_offset 5, -8
	movl	%esp, %ebp
	.cfi_def_cfa_register 5
	subl	$16, %esp
	movl	12(%ebp), %eax
	movl	8(%ebp), %edx
	orl	%edx, %eax
	cmpl	$1023, %eax
	jbe	.L203
	movl	$0, %eax
	jmp	.L204
.L203:
	movl	12(%ebp), %eax
	movl	%eax, %edx
	sall	$10, %edx
	movl	8(%ebp), %eax
	addl	%edx, %eax
	movl	sptr(,%eax,4), %eax
	movl	%eax, -8(%ebp)
	jmp	.L210
.L211:
	nop
.L210:
	movl	-8(%ebp), %eax
	addl	$2, %eax
	movzbl	(%eax), %eax
	movsbl	%al, %eax
	cmpl	16(%ebp), %eax
	jl	.L205
	movl	-8(%ebp), %eax
	addl	$1, %eax
	movzbl	(%eax), %eax
	movsbl	%al, %eax
	cmpl	16(%ebp), %eax
	jle	.L206
	movl	$0, %eax
	jmp	.L204
.L206:
	movl	-8(%ebp), %eax
	addl	$1, %eax
	movzbl	(%eax), %eax
	movsbl	%al, %eax
	movl	16(%ebp), %edx
	movl	%edx, %ecx
	subl	%eax, %ecx
	movl	%ecx, %eax
	addl	$1, %eax
	sall	$2, %eax
	movl	%eax, %edx
	movl	-8(%ebp), %eax
	addl	%edx, %eax
	jmp	.L204
.L205:
	movl	-8(%ebp), %eax
	addl	$2, %eax
	movzbl	(%eax), %eax
	movsbl	%al, %edx
	movl	-8(%ebp), %eax
	addl	$1, %eax
	movzbl	(%eax), %eax
	movsbl	%al, %eax
	subl	%eax, %edx
	movl	-8(%ebp), %eax
	movzbl	(%eax), %eax
	movsbl	%al, %eax
	movl	%edx, %ecx
	subl	%eax, %ecx
	movl	%ecx, %eax
	addl	$2, %eax
	movl	%eax, -4(%ebp)
	movl	-8(%ebp), %eax
	movzbl	(%eax), %eax
	testb	%al, %al
	jne	.L207
	movl	$1, %eax
	jmp	.L204
.L207:
	movl	-8(%ebp), %eax
	movzbl	(%eax), %eax
	movsbl	%al, %eax
	sall	$2, %eax
	addl	%eax, -8(%ebp)
	movl	-8(%ebp), %eax
	addl	$3, %eax
	movzbl	(%eax), %eax
	movsbl	%al, %eax
	cmpl	16(%ebp), %eax
	jle	.L211
	movl	-8(%ebp), %eax
	addl	$3, %eax
	movzbl	(%eax), %eax
	movsbl	%al, %eax
	movl	16(%ebp), %edx
	movl	%edx, %ecx
	subl	%eax, %ecx
	movl	%ecx, %eax
	cmpl	-4(%ebp), %eax
	jge	.L209
	movl	$1, %eax
	jmp	.L204
.L209:
	movl	-8(%ebp), %eax
	addl	$3, %eax
	movzbl	(%eax), %eax
	movsbl	%al, %eax
	movl	16(%ebp), %edx
	movl	%edx, %ecx
	subl	%eax, %ecx
	movl	%ecx, %eax
	sall	$2, %eax
	movl	%eax, %edx
	movl	-8(%ebp), %eax
	addl	%edx, %eax
.L204:
	leave
	.cfi_restore 5
	.cfi_def_cfa 4, 4
	ret
	.cfi_endproc
.LFE47:
	.size	_Z7getcubelll, .-_Z7getcubelll
	.globl	_Z12compilestackPlS_S_S_S_Pcll
	.type	_Z12compilestackPlS_S_S_S_Pcll, @function
_Z12compilestackPlS_S_S_S_Pcll:
.LFB48:
	.cfi_startproc
	.cfi_personality 0,__gxx_personality_v0
	.cfi_lsda 0,.LLSDA48
	pushl	%ebp
	.cfi_def_cfa_offset 8
	.cfi_offset 5, -8
	movl	%esp, %ebp
	.cfi_def_cfa_register 5
	pushl	%ebx
	subl	$68, %esp
	.cfi_offset 3, -12
	movl	32(%ebp), %eax
	movl	%eax, -20(%ebp)
	movl	36(%ebp), %eax
	movl	%eax, -16(%ebp)
	movl	$-1, -52(%ebp)
	movl	$-1, -12(%ebp)
	jmp	.L213
.L214:
	movl	-12(%ebp), %eax
	addl	$1, %eax
	movl	%eax, -12(%ebp)
.L213:
	movl	-12(%ebp), %eax
	addl	$1, %eax
	leal	0(,%eax,4), %edx
	movl	8(%ebp), %eax
	addl	%edx, %eax
	movl	(%eax), %eax
	cmpl	$-1, %eax
	sete	%al
	testb	%al, %al
	jne	.L214
	movl	$0, -48(%ebp)
	movl	28(%ebp), %eax
	leal	1(%eax), %edx
	movl	-12(%ebp), %eax
	addl	$1, %eax
	movb	%al, (%edx)
	movl	28(%ebp), %eax
	leal	2(%eax), %edx
	movl	-12(%ebp), %eax
	addl	$1, %eax
	movb	%al, (%edx)
	movl	28(%ebp), %eax
	addl	$3, %eax
	movb	$0, (%eax)
	movl	$4, -44(%ebp)
	movl	$1, -40(%ebp)
	movl	$0, -36(%ebp)
	movl	$-1, -32(%ebp)
	movl	$-1, -28(%ebp)
.L227:
	movl	-40(%ebp), %eax
	movl	%eax, -24(%ebp)
	movl	-36(%ebp), %eax
	movl	%eax, -40(%ebp)
	movl	$2, -36(%ebp)
	movl	-12(%ebp), %eax
	cmpl	$253, %eax
	jg	.L215
	movl	-12(%ebp), %eax
	addl	$1, %eax
	leal	0(,%eax,4), %edx
	movl	8(%ebp), %eax
	addl	%edx, %eax
	movl	(%eax), %eax
	cmpl	$-1, %eax
	jne	.L216
	movl	$0, -36(%ebp)
	jmp	.L215
.L216:
	movl	-12(%ebp), %eax
	addl	$1, %eax
	leal	0(,%eax,4), %edx
	movl	12(%ebp), %eax
	addl	%edx, %eax
	movl	(%eax), %eax
	cmpl	$-1, %eax
	je	.L217
	movl	-12(%ebp), %eax
	addl	$1, %eax
	leal	0(,%eax,4), %edx
	movl	16(%ebp), %eax
	addl	%edx, %eax
	movl	(%eax), %eax
	cmpl	$-1, %eax
	je	.L217
	movl	-12(%ebp), %eax
	addl	$1, %eax
	leal	0(,%eax,4), %edx
	movl	20(%ebp), %eax
	addl	%edx, %eax
	movl	(%eax), %eax
	cmpl	$-1, %eax
	je	.L217
	movl	-12(%ebp), %eax
	addl	$1, %eax
	leal	0(,%eax,4), %edx
	movl	24(%ebp), %eax
	addl	%edx, %eax
	movl	(%eax), %eax
	cmpl	$-1, %eax
	jne	.L215
.L217:
	movl	$1, -36(%ebp)
.L215:
	movl	-40(%ebp), %eax
	cmpl	-28(%ebp), %eax
	je	.L218
	cmpl	$0, -40(%ebp)
	jne	.L219
	cmpl	$0, -28(%ebp)
	jle	.L219
	movl	-12(%ebp), %eax
	movl	%eax, -52(%ebp)
	jmp	.L220
.L219:
	movl	-28(%ebp), %eax
	cmpl	-40(%ebp), %eax
	jge	.L220
	movl	-28(%ebp), %eax
	cmpl	-32(%ebp), %eax
	jge	.L220
	cmpl	$0, -52(%ebp)
	jns	.L221
	movl	-12(%ebp), %eax
	movl	%eax, -52(%ebp)
.L221:
	movl	-48(%ebp), %edx
	movl	28(%ebp), %eax
	addl	%eax, %edx
	movl	-48(%ebp), %eax
	movl	-44(%ebp), %ecx
	movl	%ecx, %ebx
	subl	%eax, %ebx
	movl	%ebx, %eax
	sarl	$2, %eax
	movb	%al, (%edx)
	movl	-44(%ebp), %eax
	movl	%eax, -48(%ebp)
	movl	-44(%ebp), %eax
	leal	1(%eax), %edx
	movl	28(%ebp), %eax
	addl	%eax, %edx
	movl	-12(%ebp), %eax
	movb	%al, (%edx)
	movl	-44(%ebp), %eax
	leal	2(%eax), %edx
	movl	28(%ebp), %eax
	addl	%eax, %edx
	movl	-12(%ebp), %eax
	subl	$1, %eax
	movb	%al, (%edx)
	movl	-44(%ebp), %eax
	leal	3(%eax), %edx
	movl	28(%ebp), %eax
	addl	%eax, %edx
	movl	-52(%ebp), %eax
	movb	%al, (%edx)
	addl	$4, -44(%ebp)
	movl	$-1, -52(%ebp)
.L220:
	movl	-28(%ebp), %eax
	movl	%eax, -32(%ebp)
	movl	-40(%ebp), %eax
	movl	%eax, -28(%ebp)
.L218:
	cmpl	$1, -40(%ebp)
	je	.L222
	cmpl	$2, -40(%ebp)
	jne	.L223
	cmpl	$0, -36(%ebp)
	je	.L222
	cmpl	$0, -24(%ebp)
	jne	.L223
.L222:
	movl	-48(%ebp), %eax
	leal	2(%eax), %edx
	movl	28(%ebp), %eax
	addl	%edx, %eax
	movzbl	(%eax), %eax
	movsbl	%al, %eax
	movl	-12(%ebp), %edx
	subl	$1, %edx
	cmpl	%edx, %eax
	jne	.L224
	movl	-48(%ebp), %eax
	leal	2(%eax), %edx
	movl	28(%ebp), %eax
	addl	%eax, %edx
	movl	-12(%ebp), %eax
	movb	%al, (%edx)
.L224:
	movl	-12(%ebp), %eax
	leal	0(,%eax,4), %edx
	movl	8(%ebp), %eax
	addl	%edx, %eax
	movl	(%eax), %eax
	cmpl	$-2, %eax
	jne	.L225
	movl	-44(%ebp), %edx
	movl	28(%ebp), %eax
	leal	(%edx,%eax), %ebx
	movl	vx5+19628, %eax
	leal	-20(%ebp), %edx
	movl	%edx, (%esp)
.LEHB0:
	call	*%eax
.LEHE0:
	movl	%eax, (%ebx)
	jmp	.L226
.L225:
	movl	-44(%ebp), %edx
	movl	28(%ebp), %eax
	addl	%eax, %edx
	movl	-12(%ebp), %eax
	leal	0(,%eax,4), %ecx
	movl	8(%ebp), %eax
	addl	%ecx, %eax
	movl	(%eax), %eax
	movl	%eax, (%edx)
.L226:
	addl	$4, -44(%ebp)
.L223:
	movl	-12(%ebp), %eax
	addl	$1, %eax
	movl	%eax, -12(%ebp)
	movl	-12(%ebp), %eax
	cmpl	$255, %eax
	setle	%al
	testb	%al, %al
	jne	.L227
	movl	-48(%ebp), %edx
	movl	28(%ebp), %eax
	addl	%edx, %eax
	movb	$0, (%eax)
	movl	-44(%ebp), %eax
	jmp	.L231
.L230:
	movl	%eax, (%esp)
.LEHB1:
	call	_Unwind_Resume
.LEHE1:
.L231:
	addl	$68, %esp
	popl	%ebx
	.cfi_restore 3
	popl	%ebp
	.cfi_restore 5
	.cfi_def_cfa 4, 4
	ret
	.cfi_endproc
.LFE48:
	.globl	__gxx_personality_v0
	.section	.gcc_except_table,"a",@progbits
.LLSDA48:
	.byte	0xff
	.byte	0xff
	.byte	0x1
	.uleb128 .LLSDACSE48-.LLSDACSB48
.LLSDACSB48:
	.uleb128 .LEHB0-.LFB48
	.uleb128 .LEHE0-.LEHB0
	.uleb128 .L230-.LFB48
	.uleb128 0
	.uleb128 .LEHB1-.LFB48
	.uleb128 .LEHE1-.LEHB1
	.uleb128 0
	.uleb128 0
.LLSDACSE48:
	.text
	.size	_Z12compilestackPlS_S_S_S_Pcll, .-_Z12compilestackPlS_S_S_S_Pcll
	.type	_ZL12expandbit256PvS_, @function
_ZL12expandbit256PvS_:
.LFB49:
	.cfi_startproc
	pushl	%ebp
	.cfi_def_cfa_offset 8
	.cfi_offset 5, -8
	movl	%esp, %ebp
	.cfi_def_cfa_register 5
	pushl	%edi
	pushl	%esi
	pushl	%ebx
	.cfi_offset 7, -12
	.cfi_offset 6, -16
	.cfi_offset 3, -20
	movl	8(%ebp), %ebx
	movl	12(%ebp), %edi
	movl	%ebx, %esi
#APP
# 1003 "source/voxlap5.cpp" 1
	.intel_syntax noprefix
mov	ecx, 32
xor	edx, edx
jmp	short 0f
1:
lea	esi, [esi+eax*4]
movzx	eax, byte ptr [esi+3]
sub	eax, ecx
jl	short 3f
2:
mov	[edi], edx
add	edi, 4
mov	edx, -1
add	ecx, 32
sub	eax, 32
jge	short 2b
3:
.att_syntax prefix
andl	_ZL7xbsceil+0x80(,%eax,4), %edx
.intel_syntax noprefix
0:
movzx	eax, byte ptr [esi+1]
sub	eax, ecx
jl	short 5f
4:
mov	[edi], edx
add	edi, 4
xor	edx, edx
add	ecx, 32
sub	eax, 32
jge	short 4b
5:
.att_syntax prefix
orl	_ZL7xbsflor+0x80(,%eax,4), %edx
.intel_syntax noprefix
movzx	eax, byte ptr [esi]
test	eax, eax
jnz	short 1b
sub	ecx, 256
jg	short 7f
6:
mov	[edi], edx
add	edi, 4
mov	edx, -1
add	ecx, 32
jle	short 6b
7:
.att_syntax prefix

# 0 "" 2
#NO_APP
	popl	%ebx
	.cfi_restore 3
	popl	%esi
	.cfi_restore 6
	popl	%edi
	.cfi_restore 7
	popl	%ebp
	.cfi_restore 5
	.cfi_def_cfa 4, 4
	ret
	.cfi_endproc
.LFE49:
	.size	_ZL12expandbit256PvS_, .-_ZL12expandbit256PvS_
	.globl	_Z14expandbitstackllPx
	.type	_Z14expandbitstackllPx, @function
_Z14expandbitstackllPx:
.LFB50:
	.cfi_startproc
	pushl	%ebp
	.cfi_def_cfa_offset 8
	.cfi_offset 5, -8
	movl	%esp, %ebp
	.cfi_def_cfa_register 5
	subl	$12, %esp
	movl	12(%ebp), %eax
	movl	8(%ebp), %edx
	orl	%edx, %eax
	andl	$-1024, %eax
	testl	%eax, %eax
	je	.L234
	movl	$0, 8(%esp)
	movl	$8, 4(%esp)
	movl	16(%ebp), %eax
	movl	%eax, (%esp)
	call	_ZL8clearbufPvll
	jmp	.L233
.L234:
	movl	12(%ebp), %eax
	movl	%eax, %edx
	sall	$10, %edx
	movl	8(%ebp), %eax
	addl	%edx, %eax
	movl	sptr(,%eax,4), %eax
	movl	16(%ebp), %edx
	movl	%edx, 4(%esp)
	movl	%eax, (%esp)
	call	_ZL12expandbit256PvS_
.L233:
	leave
	.cfi_restore 5
	.cfi_def_cfa 4, 4
	ret
	.cfi_endproc
.LFE50:
	.size	_Z14expandbitstackllPx, .-_Z14expandbitstackllPx
	.globl	_Z11expandstackllPl
	.type	_Z11expandstackllPl, @function
_Z11expandstackllPl:
.LFB51:
	.cfi_startproc
	pushl	%ebp
	.cfi_def_cfa_offset 8
	.cfi_offset 5, -8
	movl	%esp, %ebp
	.cfi_def_cfa_register 5
	pushl	%ebx
	subl	$28, %esp
	.cfi_offset 3, -12
	movl	12(%ebp), %eax
	movl	8(%ebp), %edx
	orl	%edx, %eax
	andl	$-1024, %eax
	testl	%eax, %eax
	je	.L237
	movl	$0, 8(%esp)
	movl	$256, 4(%esp)
	movl	16(%ebp), %eax
	movl	%eax, (%esp)
	call	_ZL8clearbufPvll
	jmp	.L236
.L237:
	movl	12(%ebp), %eax
	movl	%eax, %edx
	sall	$10, %edx
	movl	8(%ebp), %eax
	addl	%edx, %eax
	movl	sptr(,%eax,4), %eax
	movl	%eax, -16(%ebp)
	movl	$0, -20(%ebp)
	jmp	.L239
.L253:
	jmp	.L239
.L240:
	movl	-20(%ebp), %eax
	leal	0(,%eax,4), %edx
	movl	16(%ebp), %eax
	addl	%edx, %eax
	movl	$-1, (%eax)
	addl	$1, -20(%ebp)
.L239:
	movl	-16(%ebp), %eax
	addl	$1, %eax
	movzbl	(%eax), %eax
	movsbl	%al, %eax
	cmpl	-20(%ebp), %eax
	setg	%al
	testb	%al, %al
	jne	.L240
	jmp	.L241
.L242:
	movl	-20(%ebp), %eax
	leal	0(,%eax,4), %edx
	movl	16(%ebp), %eax
	addl	%eax, %edx
	movl	-16(%ebp), %eax
	addl	$1, %eax
	movzbl	(%eax), %eax
	movsbl	%al, %eax
	movl	-20(%ebp), %ecx
	movl	%ecx, %ebx
	subl	%eax, %ebx
	movl	%ebx, %eax
	addl	$1, %eax
	sall	$2, %eax
	movl	%eax, %ecx
	movl	-16(%ebp), %eax
	addl	%ecx, %eax
	movl	(%eax), %eax
	movl	%eax, (%edx)
	addl	$1, -20(%ebp)
.L241:
	movl	-16(%ebp), %eax
	addl	$2, %eax
	movzbl	(%eax), %eax
	movsbl	%al, %eax
	cmpl	-20(%ebp), %eax
	setge	%al
	testb	%al, %al
	jne	.L242
	movl	-16(%ebp), %eax
	addl	$2, %eax
	movzbl	(%eax), %eax
	movsbl	%al, %edx
	movl	-16(%ebp), %eax
	addl	$1, %eax
	movzbl	(%eax), %eax
	movsbl	%al, %eax
	movl	%edx, %ecx
	subl	%eax, %ecx
	movl	%ecx, %eax
	addl	$2, %eax
	sall	$2, %eax
	movl	%eax, %edx
	movl	-16(%ebp), %eax
	addl	%edx, %eax
	movl	%eax, -12(%ebp)
	movl	-16(%ebp), %eax
	movzbl	(%eax), %eax
	testb	%al, %al
	je	.L254
.L243:
	movl	-16(%ebp), %eax
	movzbl	(%eax), %eax
	movsbl	%al, %eax
	sall	$2, %eax
	addl	%eax, -16(%ebp)
	movl	-16(%ebp), %eax
	addl	$3, %eax
	movzbl	(%eax), %eax
	movsbl	%al, %eax
	movl	-12(%ebp), %ecx
	movl	-16(%ebp), %edx
	movl	%ecx, %ebx
	subl	%edx, %ebx
	movl	%ebx, %edx
	sarl	$2, %edx
	addl	%edx, %eax
	movl	%eax, -8(%ebp)
	jmp	.L245
.L246:
	movl	-20(%ebp), %eax
	leal	0(,%eax,4), %edx
	movl	16(%ebp), %eax
	addl	%edx, %eax
	movl	$-2, (%eax)
	addl	$1, -20(%ebp)
.L245:
	movl	-20(%ebp), %eax
	cmpl	-8(%ebp), %eax
	setl	%al
	testb	%al, %al
	jne	.L246
	jmp	.L247
.L248:
	movl	-20(%ebp), %eax
	leal	0(,%eax,4), %edx
	movl	16(%ebp), %eax
	addl	%eax, %edx
	movl	-12(%ebp), %eax
	movl	(%eax), %eax
	movl	%eax, (%edx)
	addl	$1, -20(%ebp)
	addl	$4, -12(%ebp)
.L247:
	movl	-16(%ebp), %eax
	addl	$3, %eax
	movzbl	(%eax), %eax
	movsbl	%al, %eax
	cmpl	-20(%ebp), %eax
	setg	%al
	testb	%al, %al
	jne	.L248
	jmp	.L253
.L254:
	nop
.L252:
	jmp	.L250
.L251:
	movl	-20(%ebp), %eax
	leal	0(,%eax,4), %edx
	movl	16(%ebp), %eax
	addl	%edx, %eax
	movl	$-2, (%eax)
	addl	$1, -20(%ebp)
.L250:
	cmpl	$255, -20(%ebp)
	setle	%al
	testb	%al, %al
	jne	.L251
.L236:
	addl	$28, %esp
	popl	%ebx
	.cfi_restore 3
	popl	%ebp
	.cfi_restore 5
	.cfi_def_cfa 4, 4
	ret
	.cfi_endproc
.LFE51:
	.size	_Z11expandstackllPl, .-_Z11expandstackllPl
	.globl	_Z5glinelffff
	.type	_Z5glinelffff, @function
_Z5glinelffff:
.LFB52:
	.cfi_startproc
	pushl	%ebp
	.cfi_def_cfa_offset 8
	.cfi_offset 5, -8
	movl	%esp, %ebp
	.cfi_def_cfa_register 5
	pushl	%ebx
	subl	$132, %esp
	.cfi_offset 3, -12
	flds	_ZL5gistr
	fmuls	12(%ebp)
	flds	_ZL5gihei
	fmuls	16(%ebp)
	faddp	%st, %st(1)
	flds	_ZL5gcorn
	faddp	%st, %st(1)
	fstps	-100(%ebp)
	flds	_ZL5gistr+4
	fmuls	12(%ebp)
	flds	_ZL5gihei+4
	fmuls	16(%ebp)
	faddp	%st, %st(1)
	flds	_ZL5gcorn+4
	faddp	%st, %st(1)
	fstps	-44(%ebp)
	flds	_ZL5gistr+8
	fmuls	12(%ebp)
	flds	_ZL5gihei+8
	fmuls	16(%ebp)
	faddp	%st, %st(1)
	flds	_ZL5gcorn+8
	faddp	%st, %st(1)
	fstps	-40(%ebp)
	flds	_ZL5gistr
	fmuls	20(%ebp)
	flds	_ZL5gihei
	fmuls	24(%ebp)
	faddp	%st, %st(1)
	flds	_ZL5gcorn
	faddp	%st, %st(1)
	fstps	-96(%ebp)
	flds	_ZL5gistr+4
	fmuls	20(%ebp)
	flds	_ZL5gihei+4
	fmuls	24(%ebp)
	faddp	%st, %st(1)
	flds	_ZL5gcorn+4
	faddp	%st, %st(1)
	fstps	-92(%ebp)
	flds	_ZL5gistr+8
	fmuls	20(%ebp)
	flds	_ZL5gihei+8
	fmuls	24(%ebp)
	faddp	%st, %st(1)
	flds	_ZL5gcorn+8
	faddp	%st, %st(1)
	fstps	-36(%ebp)
	flds	-96(%ebp)
	flds	-96(%ebp)
	fmulp	%st, %st(1)
	flds	-92(%ebp)
	flds	-92(%ebp)
	fmulp	%st, %st(1)
	faddp	%st, %st(1)
	fstpl	(%esp)
	call	sqrt
	fstps	-32(%ebp)
	flds	-96(%ebp)
	flds	-32(%ebp)
	fdivp	%st, %st(1)
	fstps	-28(%ebp)
	flds	-92(%ebp)
	flds	-32(%ebp)
	fdivp	%st, %st(1)
	fstps	-24(%ebp)
	flds	-96(%ebp)
	fabs
	flds	-92(%ebp)
	fabs
	fxch	%st(1)
	fucomip	%st(1), %st
	fstp	%st(0)
	jbe	.L321
.L318:
	flds	-100(%ebp)
	fmuls	-28(%ebp)
	fstps	-100(%ebp)
	jmp	.L258
.L321:
	flds	-44(%ebp)
	fmuls	-24(%ebp)
	fstps	-100(%ebp)
.L258:
	leal	-100(%ebp), %eax
	movl	(%eax), %eax
	testl	%eax, %eax
	jns	.L259
	movl	.LC1, %eax
	movl	%eax, -100(%ebp)
.L259:
	movl	-32(%ebp), %eax
	movl	%eax, -44(%ebp)
	flds	-28(%ebp)
	fabs
	flds	.LC24
	fmulp	%st, %st(1)
	movl	$gdz, 4(%esp)
	fstps	(%esp)
	call	_ZL4ftolfPl
	flds	-24(%ebp)
	fabs
	flds	.LC24
	fmulp	%st, %st(1)
	movl	$gdz+4, 4(%esp)
	fstps	(%esp)
	call	_ZL4ftolfPl
	leal	-96(%ebp), %eax
	movl	(%eax), %eax
	sarl	$31, %eax
	sall	$3, %eax
	addl	$4, %eax
	movl	%eax, gixy
	leal	-92(%ebp), %eax
	movl	(%eax), %eax
	shrl	$31, %eax
	movl	_ZL5gixyi(,%eax,4), %eax
	movl	%eax, gixy+4
	movl	gdz, %eax
	testl	%eax, %eax
	jg	.L260
	leal	-96(%ebp), %eax
	movl	(%eax), %eax
	shrl	$31, %eax
	flds	_ZL9gposxfrac(,%eax,4)
	flds	-28(%ebp)
	fabs
	fmulp	%st, %st(1)
	fldl	.LC25
	fmulp	%st, %st(1)
	fstps	-108(%ebp)
	flds	-108(%ebp)
	movl	$gpz, 4(%esp)
	fstps	(%esp)
	call	_ZL4ftolfPl
	movl	gpz, %eax
	testl	%eax, %eax
	jg	.L261
	movl	$2147483647, gpz
.L261:
	movl	gpz, %eax
	movl	$2147483647, %edx
	movl	%edx, %ecx
	subl	%eax, %ecx
	movl	%ecx, %eax
	movl	%eax, gdz
	jmp	.L262
.L260:
	leal	-96(%ebp), %eax
	movl	(%eax), %eax
	shrl	$31, %eax
	flds	_ZL9gposxfrac(,%eax,4)
	movl	gdz, %eax
	movl	%eax, -112(%ebp)
	fildl	-112(%ebp)
	fmulp	%st, %st(1)
	movl	$gpz, 4(%esp)
	fstps	(%esp)
	call	_ZL4ftolfPl
.L262:
	movl	gdz+4, %eax
	testl	%eax, %eax
	jg	.L263
	leal	-92(%ebp), %eax
	movl	(%eax), %eax
	shrl	$31, %eax
	flds	_ZL9gposyfrac(,%eax,4)
	flds	-24(%ebp)
	fabs
	fmulp	%st, %st(1)
	fldl	.LC25
	fmulp	%st, %st(1)
	fstps	-108(%ebp)
	flds	-108(%ebp)
	movl	$gpz+4, 4(%esp)
	fstps	(%esp)
	call	_ZL4ftolfPl
	movl	gpz+4, %eax
	testl	%eax, %eax
	jg	.L264
	movl	$2147483647, gpz+4
.L264:
	movl	gpz+4, %eax
	movl	$2147483647, %edx
	movl	%edx, %ecx
	subl	%eax, %ecx
	movl	%ecx, %eax
	movl	%eax, gdz+4
	jmp	.L265
.L263:
	leal	-92(%ebp), %eax
	movl	(%eax), %eax
	shrl	$31, %eax
	flds	_ZL9gposyfrac(,%eax,4)
	movl	gdz+4, %eax
	movl	%eax, -112(%ebp)
	fildl	-112(%ebp)
	fmulp	%st, %st(1)
	movl	$gpz+4, 4(%esp)
	fstps	(%esp)
	call	_ZL4ftolfPl
.L265:
	movl	$cfasm+4096, -84(%ebp)
	movl	_ZL8gscanptr, %edx
	movl	-84(%ebp), %eax
	movl	%edx, (%eax)
	movl	_ZL8gscanptr, %eax
	movl	8(%ebp), %edx
	sall	$3, %edx
	addl	%eax, %edx
	movl	-84(%ebp), %eax
	movl	%edx, 4(%eax)
	movl	_ZL8gstartz0, %edx
	movl	-84(%ebp), %eax
	movl	%edx, 8(%eax)
	movl	_ZL8gstartz1, %edx
	movl	-84(%ebp), %eax
	movl	%edx, 12(%eax)
	movl	_ZL9giforzsgn, %eax
	testl	%eax, %eax
	jns	.L266
	flds	-100(%ebp)
	flds	-44(%ebp)
	fsubp	%st, %st(1)
	movl	8(%ebp), %eax
	flds	_ZL8cmprecip(,%eax,4)
	fmulp	%st, %st(1)
	movl	$gi, 4(%esp)
	fstps	(%esp)
	call	_ZL4ftolfPl
	movl	-84(%ebp), %eax
	addl	$16, %eax
	flds	-100(%ebp)
	flds	.LC24
	fmulp	%st, %st(1)
	movl	%eax, 4(%esp)
	fstps	(%esp)
	call	_ZL4ftolfPl
	flds	-36(%ebp)
	fsubs	-40(%ebp)
	movl	8(%ebp), %eax
	flds	_ZL8cmprecip(,%eax,4)
	fmulp	%st, %st(1)
	movl	$gi+4, 4(%esp)
	fstps	(%esp)
	call	_ZL4ftolfPl
	movl	-84(%ebp), %eax
	addl	$20, %eax
	flds	-40(%ebp)
	flds	.LC24
	fmulp	%st, %st(1)
	movl	%eax, 4(%esp)
	fstps	(%esp)
	call	_ZL4ftolfPl
	jmp	.L267
.L266:
	flds	-100(%ebp)
	fsubs	-44(%ebp)
	movl	8(%ebp), %eax
	flds	_ZL8cmprecip(,%eax,4)
	fmulp	%st, %st(1)
	movl	$gi, 4(%esp)
	fstps	(%esp)
	call	_ZL4ftolfPl
	movl	-84(%ebp), %eax
	addl	$16, %eax
	flds	-44(%ebp)
	flds	.LC24
	fmulp	%st, %st(1)
	movl	%eax, 4(%esp)
	fstps	(%esp)
	call	_ZL4ftolfPl
	flds	-40(%ebp)
	fsubs	-36(%ebp)
	movl	8(%ebp), %eax
	flds	_ZL8cmprecip(,%eax,4)
	fmulp	%st, %st(1)
	movl	$gi+4, 4(%esp)
	fstps	(%esp)
	call	_ZL4ftolfPl
	movl	-84(%ebp), %eax
	addl	$20, %eax
	flds	-36(%ebp)
	flds	.LC24
	fmulp	%st, %st(1)
	movl	%eax, 4(%esp)
	fstps	(%esp)
	call	_ZL4ftolfPl
.L267:
	movl	$gi, %eax
	movl	(%eax), %eax
	movl	%eax, %edx
	imull	8(%ebp), %edx
	movl	-84(%ebp), %eax
	movl	16(%eax), %eax
	addl	%eax, %edx
	movl	-84(%ebp), %eax
	movl	%edx, 24(%eax)
	movl	$gi+4, %eax
	movl	(%eax), %eax
	movl	%eax, %edx
	imull	8(%ebp), %edx
	movl	-84(%ebp), %eax
	movl	20(%eax), %eax
	addl	%eax, %edx
	movl	-84(%ebp), %eax
	movl	%edx, 28(%eax)
	movl	_ZL12gmaxscandist, %eax
	movl	%eax, gxmax
	movl	gixy, %eax
	testl	%eax, %eax
	jns	.L268
	movl	_ZL6glipos, %eax
	movl	%eax, -88(%ebp)
	jmp	.L269
.L268:
	movl	_ZL6glipos, %eax
	movl	$1023, %edx
	movl	%edx, %ecx
	subl	%eax, %ecx
	movl	%ecx, %eax
	movl	%eax, -88(%ebp)
.L269:
	movl	gdz, %eax
	movl	-88(%ebp), %edx
	movl	%edx, 4(%esp)
	movl	%eax, (%esp)
	call	_ZL5mul64ll
	movl	%eax, -16(%ebp)
	movl	%edx, -12(%ebp)
	movl	gpz, %eax
	movl	%eax, %edx
	sarl	$31, %edx
	addl	%eax, -16(%ebp)
	adcl	%edx, -12(%ebp)
	movl	gxmax, %eax
	movl	%eax, %edx
	sarl	$31, %edx
	cmpl	-12(%ebp), %edx
	jb	.L270
	cmpl	-12(%ebp), %edx
	ja	.L319
	cmpl	-16(%ebp), %eax
	jbe	.L270
.L319:
	movl	-16(%ebp), %eax
	movl	%eax, gxmax
.L270:
	movl	gixy+4, %eax
	testl	%eax, %eax
	jns	.L272
	movl	_ZL6glipos+4, %eax
	movl	%eax, -88(%ebp)
	jmp	.L273
.L272:
	movl	_ZL6glipos+4, %eax
	movl	$1023, %edx
	movl	%edx, %ecx
	subl	%eax, %ecx
	movl	%ecx, %eax
	movl	%eax, -88(%ebp)
.L273:
	movl	gdz+4, %eax
	movl	-88(%ebp), %edx
	movl	%edx, 4(%esp)
	movl	%eax, (%esp)
	call	_ZL5mul64ll
	movl	%eax, -16(%ebp)
	movl	%edx, -12(%ebp)
	movl	gpz+4, %eax
	movl	%eax, %edx
	sarl	$31, %edx
	addl	%eax, -16(%ebp)
	adcl	%edx, -12(%ebp)
	movl	gxmax, %eax
	movl	%eax, %edx
	sarl	$31, %edx
	cmpl	-12(%ebp), %edx
	jb	.L274
	cmpl	-12(%ebp), %edx
	ja	.L320
	cmpl	-16(%ebp), %eax
	jbe	.L274
.L320:
	movl	-16(%ebp), %eax
	movl	%eax, gxmax
.L274:
	movl	vx5+19576, %eax
	testl	%eax, %eax
	je	.L276
	movl	gixy, %eax
	shrl	$31, %eax
	addl	$4, %eax
	movl	gcsub+4(,%eax,8), %edx
	movl	gcsub(,%eax,8), %eax
	movl	%eax, gcsub
	movl	%edx, gcsub+4
	movl	gixy+4, %eax
	shrl	$31, %eax
	addl	$6, %eax
	movl	gcsub+4(,%eax,8), %edx
	movl	gcsub(,%eax,8), %eax
	movl	%eax, gcsub+8
	movl	%edx, gcsub+12
.L276:
	movl	-84(%ebp), %eax
	movl	%eax, -52(%ebp)
	movl	_ZL7gstartv, %eax
	movl	%eax, -48(%ebp)
	movl	gpz+4, %edx
	movl	gpz, %eax
	movl	%edx, %ecx
	subl	%eax, %ecx
	movl	%ecx, %eax
	shrl	$31, %eax
	movl	%eax, -88(%ebp)
	movl	-88(%ebp), %eax
	movl	gpz(,%eax,4), %eax
	movl	%eax, -80(%ebp)
	movl	gpixy, %eax
	movl	%eax, -72(%ebp)
	movl	gpixy, %eax
	movl	(%eax), %eax
	cmpl	-48(%ebp), %eax
	jne	.L324
	jmp	.L278
.L332:
	nop
	jmp	.L280
.L334:
	nop
.L280:
	movl	-48(%ebp), %eax
	addl	$1, %eax
	movzbl	(%eax), %eax
	movsbl	%al, %edx
	movl	-84(%ebp), %eax
	movl	12(%eax), %eax
	cmpl	%eax, %edx
	je	.L281
	movl	-48(%ebp), %eax
	addl	$1, %eax
	movzbl	(%eax), %eax
	movsbl	%al, %edx
	movl	-84(%ebp), %eax
	movl	12(%eax), %eax
	cmpl	%eax, %edx
	jle	.L282
	movl	-48(%ebp), %eax
	addl	$1, %eax
	movzbl	(%eax), %eax
	movsbl	%al, %edx
	movl	-84(%ebp), %eax
	movl	%edx, 12(%eax)
	jmp	.L281
.L282:
	movl	-84(%ebp), %eax
	movl	12(%eax), %eax
	leal	-1(%eax), %edx
	movl	-84(%ebp), %eax
	movl	%edx, 12(%eax)
	movl	-84(%ebp), %eax
	movl	12(%eax), %edx
	movl	-48(%ebp), %eax
	addl	$1, %eax
	movzbl	(%eax), %eax
	movsbl	%al, %eax
	movl	%edx, %ecx
	subl	%eax, %ecx
	movl	%ecx, %eax
	addl	$1, %eax
	sall	$2, %eax
	movl	%eax, %edx
	movl	-48(%ebp), %eax
	addl	%edx, %eax
	movl	(%eax), %eax
	movl	%eax, -68(%ebp)
	jmp	.L283
.L286:
	movl	-84(%ebp), %eax
	movl	4(%eax), %eax
	movl	-68(%ebp), %edx
	movl	%edx, (%eax)
	movl	-84(%ebp), %eax
	movl	4(%eax), %eax
	leal	-8(%eax), %edx
	movl	-84(%ebp), %eax
	movl	%edx, 4(%eax)
	movl	-84(%ebp), %eax
	movl	(%eax), %edx
	movl	-84(%ebp), %eax
	movl	4(%eax), %eax
	cmpl	%eax, %edx
	ja	.L325
.L284:
	movl	-84(%ebp), %eax
	movl	24(%eax), %edx
	movl	$gi, %eax
	movl	(%eax), %eax
	subl	%eax, %edx
	movl	-84(%ebp), %eax
	movl	%edx, 24(%eax)
	movl	-84(%ebp), %eax
	movl	28(%eax), %edx
	movl	$gi+4, %eax
	movl	(%eax), %eax
	subl	%eax, %edx
	movl	-84(%ebp), %eax
	movl	%edx, 28(%eax)
.L283:
	movl	-84(%ebp), %eax
	movl	28(%eax), %ecx
	movl	-84(%ebp), %eax
	movl	24(%eax), %edx
	movl	-84(%ebp), %eax
	movl	12(%eax), %eax
	movl	gylookup(,%eax,4), %eax
	movl	-76(%ebp), %ebx
	movl	%ebx, 12(%esp)
	movl	%ecx, 8(%esp)
	movl	%edx, 4(%esp)
	movl	%eax, (%esp)
	call	_ZL11dmulrethighllll
	shrl	$31, %eax
	testb	%al, %al
	jne	.L286
	movl	-48(%ebp), %eax
	addl	$1, %eax
	movzbl	(%eax), %eax
	movsbl	%al, %edx
	movl	-84(%ebp), %eax
	movl	12(%eax), %eax
	cmpl	%eax, %edx
	setne	%al
	testb	%al, %al
	jne	.L282
.L281:
	movl	-72(%ebp), %eax
	movl	(%eax), %eax
	cmpl	-48(%ebp), %eax
	je	.L326
.L287:
	movl	-48(%ebp), %eax
	addl	$3, %eax
	movzbl	(%eax), %eax
	movsbl	%al, %edx
	movl	-84(%ebp), %eax
	movl	8(%eax), %eax
	cmpl	%eax, %edx
	je	.L327
	movl	-48(%ebp), %eax
	addl	$3, %eax
	movzbl	(%eax), %eax
	movsbl	%al, %edx
	movl	-84(%ebp), %eax
	movl	8(%eax), %eax
	cmpl	%eax, %edx
	jge	.L288
	movl	-48(%ebp), %eax
	addl	$3, %eax
	movzbl	(%eax), %eax
	movsbl	%al, %edx
	movl	-84(%ebp), %eax
	movl	%edx, 8(%eax)
	jmp	.L327
.L288:
	movl	-84(%ebp), %eax
	movl	8(%eax), %eax
	leal	1(%eax), %edx
	movl	-84(%ebp), %eax
	movl	%edx, 8(%eax)
	movl	-84(%ebp), %eax
	movl	8(%eax), %edx
	movl	-48(%ebp), %eax
	addl	$3, %eax
	movzbl	(%eax), %eax
	movsbl	%al, %eax
	movl	%edx, %ecx
	subl	%eax, %ecx
	movl	%ecx, %eax
	subl	$1, %eax
	sall	$2, %eax
	movl	%eax, %edx
	movl	-48(%ebp), %eax
	addl	%edx, %eax
	movl	(%eax), %eax
	movl	%eax, -68(%ebp)
	jmp	.L289
.L291:
	movl	-84(%ebp), %eax
	movl	(%eax), %eax
	movl	-68(%ebp), %edx
	movl	%edx, (%eax)
	movl	-84(%ebp), %eax
	movl	(%eax), %eax
	leal	8(%eax), %edx
	movl	-84(%ebp), %eax
	movl	%edx, (%eax)
	movl	-84(%ebp), %eax
	movl	(%eax), %edx
	movl	-84(%ebp), %eax
	movl	4(%eax), %eax
	cmpl	%eax, %edx
	ja	.L328
.L290:
	movl	-84(%ebp), %eax
	movl	16(%eax), %edx
	movl	$gi, %eax
	movl	(%eax), %eax
	addl	%eax, %edx
	movl	-84(%ebp), %eax
	movl	%edx, 16(%eax)
	movl	-84(%ebp), %eax
	movl	20(%eax), %edx
	movl	$gi+4, %eax
	movl	(%eax), %eax
	addl	%eax, %edx
	movl	-84(%ebp), %eax
	movl	%edx, 20(%eax)
.L289:
	movl	-84(%ebp), %eax
	movl	20(%eax), %ecx
	movl	-84(%ebp), %eax
	movl	16(%eax), %edx
	movl	-84(%ebp), %eax
	movl	8(%eax), %eax
	movl	gylookup(,%eax,4), %eax
	movl	-76(%ebp), %ebx
	movl	%ebx, 12(%esp)
	movl	%ecx, 8(%esp)
	movl	%edx, 4(%esp)
	movl	%eax, (%esp)
	call	_ZL11dmulrethighllll
	notl	%eax
	shrl	$31, %eax
	testb	%al, %al
	jne	.L291
	movl	-48(%ebp), %eax
	addl	$3, %eax
	movzbl	(%eax), %eax
	movsbl	%al, %edx
	movl	-84(%ebp), %eax
	movl	8(%eax), %eax
	cmpl	%eax, %edx
	setne	%al
	testb	%al, %al
	jne	.L288
	jmp	.L327
.L324:
	nop
.L279:
	jmp	.L327
.L294:
	movl	-84(%ebp), %eax
	movl	(%eax), %eax
	movl	-48(%ebp), %edx
	movl	-4(%edx), %edx
	movl	%edx, (%eax)
	movl	-84(%ebp), %eax
	movl	(%eax), %eax
	leal	8(%eax), %edx
	movl	-84(%ebp), %eax
	movl	%edx, (%eax)
	movl	-84(%ebp), %eax
	movl	(%eax), %edx
	movl	-84(%ebp), %eax
	movl	4(%eax), %eax
	cmpl	%eax, %edx
	ja	.L329
.L293:
	movl	-84(%ebp), %eax
	movl	16(%eax), %edx
	movl	$gi, %eax
	movl	(%eax), %eax
	addl	%eax, %edx
	movl	-84(%ebp), %eax
	movl	%edx, 16(%eax)
	movl	-84(%ebp), %eax
	movl	20(%eax), %edx
	movl	$gi+4, %eax
	movl	(%eax), %eax
	addl	%eax, %edx
	movl	-84(%ebp), %eax
	movl	%edx, 20(%eax)
	jmp	.L292
.L327:
	nop
.L292:
	movl	-84(%ebp), %eax
	movl	20(%eax), %ecx
	movl	-84(%ebp), %eax
	movl	16(%eax), %edx
	movl	-84(%ebp), %eax
	movl	8(%eax), %eax
	movl	gylookup(,%eax,4), %eax
	movl	-80(%ebp), %ebx
	movl	%ebx, 12(%esp)
	movl	%ecx, 8(%esp)
	movl	%edx, 4(%esp)
	movl	%eax, (%esp)
	call	_ZL11dmulrethighllll
	notl	%eax
	shrl	$31, %eax
	testb	%al, %al
	jne	.L294
	jmp	.L295
.L326:
	nop
.L278:
	jmp	.L295
.L297:
	movl	-84(%ebp), %eax
	movl	4(%eax), %eax
	movl	-48(%ebp), %edx
	movl	4(%edx), %edx
	movl	%edx, (%eax)
	movl	-84(%ebp), %eax
	movl	4(%eax), %eax
	leal	-8(%eax), %edx
	movl	-84(%ebp), %eax
	movl	%edx, 4(%eax)
	movl	-84(%ebp), %eax
	movl	(%eax), %edx
	movl	-84(%ebp), %eax
	movl	4(%eax), %eax
	cmpl	%eax, %edx
	ja	.L330
.L296:
	movl	-84(%ebp), %eax
	movl	24(%eax), %edx
	movl	$gi, %eax
	movl	(%eax), %eax
	subl	%eax, %edx
	movl	-84(%ebp), %eax
	movl	%edx, 24(%eax)
	movl	-84(%ebp), %eax
	movl	28(%eax), %edx
	movl	$gi+4, %eax
	movl	(%eax), %eax
	subl	%eax, %edx
	movl	-84(%ebp), %eax
	movl	%edx, 28(%eax)
.L295:
	movl	-84(%ebp), %eax
	movl	28(%eax), %ecx
	movl	-84(%ebp), %eax
	movl	24(%eax), %edx
	movl	-84(%ebp), %eax
	movl	12(%eax), %eax
	movl	gylookup(,%eax,4), %eax
	movl	-80(%ebp), %ebx
	movl	%ebx, 12(%esp)
	movl	%ecx, 8(%esp)
	movl	%edx, 4(%esp)
	movl	%eax, (%esp)
	call	_ZL11dmulrethighllll
	shrl	$31, %eax
	testb	%al, %al
	jne	.L297
.L298:
	subl	$32, -84(%ebp)
	cmpl	$cfasm+4096, -84(%ebp)
	jae	.L299
	movl	-88(%ebp), %eax
	movl	gixy(,%eax,4), %eax
	addl	%eax, -72(%ebp)
	movl	-88(%ebp), %eax
	movl	gpz(,%eax,4), %edx
	movl	-88(%ebp), %eax
	movl	gdz(,%eax,4), %eax
	addl	%eax, %edx
	movl	-88(%ebp), %eax
	movl	%edx, gpz(,%eax,4)
	movl	gpz+4, %edx
	movl	gpz, %eax
	movl	%edx, %ecx
	subl	%eax, %ecx
	movl	%ecx, %eax
	shrl	$31, %eax
	movl	%eax, -88(%ebp)
	movl	-80(%ebp), %eax
	movl	%eax, -76(%ebp)
	movl	-88(%ebp), %eax
	movl	gpz(,%eax,4), %eax
	movl	%eax, -80(%ebp)
	movl	gxmax, %eax
	cmpl	%eax, -80(%ebp)
	jg	.L331
.L300:
	movl	-72(%ebp), %eax
	movl	(%eax), %eax
	movl	%eax, -48(%ebp)
	movl	-52(%ebp), %eax
	movl	%eax, -84(%ebp)
.L299:
	movl	-48(%ebp), %eax
	movzbl	(%eax), %eax
	testb	%al, %al
	je	.L332
.L302:
	movl	-84(%ebp), %eax
	movl	20(%eax), %ecx
	movl	-84(%ebp), %eax
	movl	16(%eax), %edx
	movl	-48(%ebp), %eax
	addl	$2, %eax
	movzbl	(%eax), %eax
	movsbl	%al, %eax
	addl	$1, %eax
	movl	gylookup(,%eax,4), %eax
	movl	-76(%ebp), %ebx
	movl	%ebx, 12(%esp)
	movl	%ecx, 8(%esp)
	movl	%edx, 4(%esp)
	movl	%eax, (%esp)
	call	_ZL11dmulrethighllll
	notl	%eax
	shrl	$31, %eax
	testb	%al, %al
	jne	.L333
.L303:
	movl	-48(%ebp), %eax
	movzbl	(%eax), %eax
	movsbl	%al, %eax
	sall	$2, %eax
	addl	%eax, -48(%ebp)
	jmp	.L299
.L333:
	nop
.L323:
	movl	-48(%ebp), %eax
	movzbl	(%eax), %eax
	movsbl	%al, %eax
	sall	$2, %eax
	leal	3(%eax), %edx
	movl	-48(%ebp), %eax
	addl	%edx, %eax
	movzbl	(%eax), %eax
	movsbl	%al, %eax
	movl	gylookup(,%eax,4), %eax
	movl	%eax, -20(%ebp)
	movl	-84(%ebp), %eax
	movl	28(%eax), %edx
	movl	-84(%ebp), %eax
	movl	24(%eax), %eax
	movl	-76(%ebp), %ecx
	movl	%ecx, 12(%esp)
	movl	%edx, 8(%esp)
	movl	%eax, 4(%esp)
	movl	-20(%ebp), %eax
	movl	%eax, (%esp)
	call	_ZL11dmulrethighllll
	shrl	$31, %eax
	testb	%al, %al
	je	.L334
	movl	-84(%ebp), %eax
	movl	4(%eax), %eax
	movl	%eax, -68(%ebp)
	movl	-84(%ebp), %eax
	movl	24(%eax), %eax
	movl	%eax, -64(%ebp)
	movl	-84(%ebp), %eax
	movl	28(%eax), %eax
	movl	%eax, -60(%ebp)
	jmp	.L306
.L307:
	movl	-68(%ebp), %eax
	subl	$8, %eax
	movl	%eax, -68(%ebp)
	movl	$gi, %eax
	movl	(%eax), %eax
	subl	%eax, -64(%ebp)
	movl	$gi+4, %eax
	movl	(%eax), %eax
	subl	%eax, -60(%ebp)
.L306:
	movl	-48(%ebp), %eax
	addl	$2, %eax
	movzbl	(%eax), %eax
	movsbl	%al, %eax
	addl	$1, %eax
	movl	gylookup(,%eax,4), %eax
	movl	-76(%ebp), %edx
	movl	%edx, 12(%esp)
	movl	-60(%ebp), %edx
	movl	%edx, 8(%esp)
	movl	-64(%ebp), %edx
	movl	%edx, 4(%esp)
	movl	%eax, (%esp)
	call	_ZL11dmulrethighllll
	shrl	$31, %eax
	testb	%al, %al
	jne	.L307
	addl	$32, -52(%ebp)
	cmpl	$cfasm+6144, -52(%ebp)
	jae	.L255
	movl	-52(%ebp), %eax
	movl	%eax, -56(%ebp)
	jmp	.L309
.L310:
	movl	-56(%ebp), %eax
	movl	-56(%ebp), %edx
	movl	-32(%edx), %ecx
	movl	%ecx, (%eax)
	movl	-28(%edx), %ecx
	movl	%ecx, 4(%eax)
	movl	-24(%edx), %ecx
	movl	%ecx, 8(%eax)
	movl	-20(%edx), %ecx
	movl	%ecx, 12(%eax)
	movl	-16(%edx), %ecx
	movl	%ecx, 16(%eax)
	movl	-12(%edx), %ecx
	movl	%ecx, 20(%eax)
	movl	-8(%edx), %ecx
	movl	%ecx, 24(%eax)
	movl	-4(%edx), %edx
	movl	%edx, 28(%eax)
	subl	$32, -56(%ebp)
.L309:
	movl	-56(%ebp), %eax
	cmpl	-84(%ebp), %eax
	seta	%al
	testb	%al, %al
	jne	.L310
	movl	-84(%ebp), %eax
	leal	32(%eax), %edx
	movl	-68(%ebp), %eax
	movl	%eax, 4(%edx)
	movl	-68(%ebp), %eax
	addl	$8, %eax
	movl	%eax, %edx
	movl	-84(%ebp), %eax
	movl	%edx, (%eax)
	movl	-84(%ebp), %eax
	leal	32(%eax), %edx
	movl	-64(%ebp), %eax
	movl	%eax, 24(%edx)
	movl	$gi, %eax
	movl	(%eax), %edx
	movl	-64(%ebp), %eax
	addl	%eax, %edx
	movl	-84(%ebp), %eax
	movl	%edx, 16(%eax)
	movl	-84(%ebp), %eax
	leal	32(%eax), %edx
	movl	-60(%ebp), %eax
	movl	%eax, 28(%edx)
	movl	$gi+4, %eax
	movl	(%eax), %edx
	movl	-60(%ebp), %eax
	addl	%eax, %edx
	movl	-84(%ebp), %eax
	movl	%edx, 20(%eax)
	movl	-84(%ebp), %eax
	leal	32(%eax), %ecx
	movl	-48(%ebp), %eax
	movzbl	(%eax), %eax
	movsbl	%al, %eax
	sall	$2, %eax
	leal	3(%eax), %edx
	movl	-48(%ebp), %eax
	addl	%edx, %eax
	movzbl	(%eax), %eax
	movsbl	%al, %edx
	movl	-84(%ebp), %eax
	movl	%edx, 8(%eax)
	movl	-84(%ebp), %eax
	movl	8(%eax), %eax
	movl	%eax, 12(%ecx)
	addl	$32, -84(%ebp)
	jmp	.L334
.L331:
	nop
.L322:
	movl	-52(%ebp), %eax
	movl	%eax, -84(%ebp)
	jmp	.L311
.L313:
	movl	-84(%ebp), %eax
	movl	(%eax), %eax
	movl	$0, (%eax)
	movl	-84(%ebp), %eax
	movl	(%eax), %eax
	leal	8(%eax), %edx
	movl	-84(%ebp), %eax
	movl	%edx, (%eax)
.L312:
	movl	-84(%ebp), %eax
	movl	(%eax), %edx
	movl	-84(%ebp), %eax
	movl	4(%eax), %eax
	cmpl	%eax, %edx
	setbe	%al
	testb	%al, %al
	jne	.L313
	subl	$32, -84(%ebp)
.L311:
	cmpl	$cfasm+4096, -84(%ebp)
	setae	%al
	testb	%al, %al
	jne	.L312
	jmp	.L255
.L325:
	nop
	jmp	.L285
.L328:
	nop
	jmp	.L285
.L329:
	nop
	jmp	.L285
.L330:
	nop
.L285:
	subl	$32, -52(%ebp)
	cmpl	$cfasm+4096, -52(%ebp)
	jb	.L255
	movl	-84(%ebp), %eax
	movl	%eax, -56(%ebp)
	jmp	.L315
.L316:
	movl	-56(%ebp), %eax
	movl	-56(%ebp), %edx
	movl	32(%edx), %ecx
	movl	%ecx, (%eax)
	movl	36(%edx), %ecx
	movl	%ecx, 4(%eax)
	movl	40(%edx), %ecx
	movl	%ecx, 8(%eax)
	movl	44(%edx), %ecx
	movl	%ecx, 12(%eax)
	movl	48(%edx), %ecx
	movl	%ecx, 16(%eax)
	movl	52(%edx), %ecx
	movl	%ecx, 20(%eax)
	movl	56(%edx), %ecx
	movl	%ecx, 24(%eax)
	movl	60(%edx), %edx
	movl	%edx, 28(%eax)
	addl	$32, -56(%ebp)
.L315:
	movl	-56(%ebp), %eax
	cmpl	-52(%ebp), %eax
	setbe	%al
	testb	%al, %al
	jne	.L316
	jmp	.L298
.L255:
	addl	$132, %esp
	popl	%ebx
	.cfi_restore 3
	popl	%ebp
	.cfi_restore 5
	.cfi_def_cfa 4, 4
	ret
	.cfi_endproc
.LFE52:
	.size	_Z5glinelffff, .-_Z5glinelffff
	.type	_ZL6addusbPcl, @function
_ZL6addusbPcl:
.LFB53:
	.cfi_startproc
	pushl	%ebp
	.cfi_def_cfa_offset 8
	.cfi_offset 5, -8
	movl	%esp, %ebp
	.cfi_def_cfa_register 5
	movl	8(%ebp), %eax
	movzbl	(%eax), %eax
	movl	%eax, %edx
	movl	12(%ebp), %eax
	addl	%edx, %eax
	movl	%eax, %edx
	movl	8(%ebp), %eax
	movb	%dl, (%eax)
	movl	8(%ebp), %eax
	movzbl	(%eax), %eax
	movsbl	%al, %eax
	cmpl	12(%ebp), %eax
	jge	.L335
	movl	8(%ebp), %eax
	movb	$-1, (%eax)
.L335:
	popl	%ebp
	.cfi_restore 5
	.cfi_def_cfa 4, 4
	ret
	.cfi_endproc
.LFE53:
	.size	_ZL6addusbPcl, .-_ZL6addusbPcl
	.globl	_Z8setflashffflll
	.type	_Z8setflashffflll, @function
_Z8setflashffflll:
.LFB54:
	.cfi_startproc
	.cfi_personality 0,__gxx_personality_v0
	.cfi_lsda 0,.LLSDA54
	pushl	%ebp
	.cfi_def_cfa_offset 8
	.cfi_offset 5, -8
	movl	%esp, %ebp
	.cfi_def_cfa_register 5
	pushl	%edi
	pushl	%esi
	pushl	%ebx
	subl	$156, %esp
	.cfi_offset 7, -12
	.cfi_offset 6, -16
	.cfi_offset 3, -20
	movss	8(%ebp), %xmm0
	cvttss2si	%xmm0, %eax
	movl	%eax, -52(%ebp)
	movss	12(%ebp), %xmm0
	cvttss2si	%xmm0, %eax
	movl	%eax, -48(%ebp)
	movss	16(%ebp), %xmm0
	cvttss2si	%xmm0, %eax
	movl	%eax, -44(%ebp)
	movl	20(%ebp), %eax
	movl	-52(%ebp), %edx
	movl	%edx, %ecx
	subl	%eax, %ecx
	movl	%ecx, %eax
	movl	%eax, vx5+84
	movl	20(%ebp), %eax
	movl	-52(%ebp), %edx
	addl	%edx, %eax
	addl	$1, %eax
	movl	%eax, vx5+96
	movl	20(%ebp), %eax
	movl	-48(%ebp), %edx
	movl	%edx, %ebx
	subl	%eax, %ebx
	movl	%ebx, %eax
	movl	%eax, vx5+88
	movl	20(%ebp), %eax
	movl	-48(%ebp), %edx
	addl	%edx, %eax
	addl	$1, %eax
	movl	%eax, vx5+100
	movl	20(%ebp), %eax
	movl	-44(%ebp), %edx
	movl	%edx, %ecx
	subl	%eax, %ecx
	movl	%ecx, %eax
	movl	%eax, vx5+92
	movl	20(%ebp), %eax
	movl	-44(%ebp), %edx
	addl	%edx, %eax
	addl	$1, %eax
	movl	%eax, vx5+104
	cmpl	$2047, 20(%ebp)
	jle	.L338
	movl	$2047, 20(%ebp)
.L338:
	sall	$20, 20(%ebp)
	movl	28(%ebp), %eax
	sall	$24, %eax
	movl	%eax, %edx
	sarl	$31, %edx
	movl	%eax, flashbrival
	movl	%edx, flashbrival+4
	movl	_ZL8flashcnt, %eax
	sall	$2, %eax
	movl	$1383339568, %edx
	movl	%edx, %ebx
	movl	%eax, %ecx
	sarl	%cl, %ebx
	movl	%ebx, %eax
	andl	$15, %eax
	movl	%eax, -40(%ebp)
	movl	_ZL8flashcnt, %eax
	addl	$1, %eax
	movl	%eax, _ZL8flashcnt
	fildl	-52(%ebp)
	flds	8(%ebp)
	fsubp	%st, %st(1)
	fstps	_ZL9gposxfrac+4
	flds	_ZL9gposxfrac+4
	fld1
	fsubp	%st, %st(1)
	fstps	_ZL9gposxfrac
	fildl	-48(%ebp)
	flds	12(%ebp)
	fsubp	%st, %st(1)
	fstps	_ZL9gposyfrac+4
	flds	_ZL9gposyfrac+4
	fld1
	fsubp	%st, %st(1)
	fstps	_ZL9gposyfrac
	movl	-48(%ebp), %eax
	movl	%eax, %edx
	sall	$10, %edx
	movl	-52(%ebp), %eax
	addl	%edx, %eax
	sall	$2, %eax
	addl	$sptr, %eax
	movl	%eax, gpixy
	flds	16(%ebp)
	flds	.LC24
	fmulp	%st, %st(1)
	flds	.LC7
	fsubrp	%st, %st(1)
	movl	$_ZL5gposz, 4(%esp)
	fstps	(%esp)
	call	_ZL4ftolfPl
	movl	_ZL5gposz, %eax
	negl	%eax
	movl	%eax, gylookup
	movl	$1, -100(%ebp)
	jmp	.L339
.L340:
	movl	-100(%ebp), %eax
	subl	$1, %eax
	movl	gylookup(,%eax,4), %eax
	leal	1048576(%eax), %edx
	movl	-100(%ebp), %eax
	movl	%edx, gylookup(,%eax,4)
	addl	$1, -100(%ebp)
.L339:
	cmpl	$259, -100(%ebp)
	setle	%al
	testb	%al, %al
	jne	.L340
	movl	gpixy, %eax
	movl	(%eax), %eax
	movl	%eax, -56(%ebp)
	movl	-56(%ebp), %eax
	addl	$1, %eax
	movzbl	(%eax), %eax
	movsbl	%al, %eax
	cmpl	-44(%ebp), %eax
	jg	.L341
.L343:
	movl	-56(%ebp), %eax
	movzbl	(%eax), %eax
	testb	%al, %al
	je	.L337
	movl	-56(%ebp), %eax
	movzbl	(%eax), %eax
	movsbl	%al, %eax
	sall	$2, %eax
	addl	%eax, -56(%ebp)
	movl	-56(%ebp), %eax
	addl	$1, %eax
	movzbl	(%eax), %eax
	movsbl	%al, %eax
	cmpl	-44(%ebp), %eax
	setle	%al
	testb	%al, %al
	jne	.L343
	movl	-56(%ebp), %eax
	addl	$3, %eax
	movzbl	(%eax), %eax
	movsbl	%al, %eax
	cmpl	-44(%ebp), %eax
	jg	.L337
	movl	-56(%ebp), %eax
	addl	$3, %eax
	movzbl	(%eax), %eax
	movsbl	%al, %eax
	movl	%eax, -76(%ebp)
	jmp	.L344
.L341:
	movl	$0, -76(%ebp)
.L344:
	movl	-56(%ebp), %eax
	addl	$1, %eax
	movzbl	(%eax), %eax
	movsbl	%al, %eax
	movl	%eax, -36(%ebp)
	movl	$0, -100(%ebp)
	jmp	.L345
.L388:
	call	_ZL8clearMMXv
	fildl	-100(%ebp)
	fildl	-40(%ebp)
	flds	.LC26
	fmulp	%st, %st(1)
	faddp	%st, %st(1)
	fldl	.LC11
	fmulp	%st, %st(1)
	fld	%st(0)
	faddp	%st, %st(1)
	fildl	24(%ebp)
	fdivrp	%st, %st(1)
	fstps	-124(%ebp)
	flds	-124(%ebp)
	leal	-104(%ebp), %eax
	movl	%eax, 8(%esp)
	leal	-108(%ebp), %eax
	movl	%eax, 4(%esp)
	fstps	(%esp)
	call	_ZL7fcossinfPfS_
	flds	-108(%ebp)
	fabs
	flds	.LC24
	fdivp	%st, %st(1)
	movl	$gdz, 4(%esp)
	fstps	(%esp)
	call	_ZL4ftolfPl
	flds	-104(%ebp)
	fabs
	flds	.LC24
	fdivp	%st, %st(1)
	movl	$gdz+4, 4(%esp)
	fstps	(%esp)
	call	_ZL4ftolfPl
	leal	-108(%ebp), %eax
	movl	(%eax), %eax
	sarl	$31, %eax
	andl	$-8, %eax
	addl	$4, %eax
	movl	%eax, gixy
	leal	-104(%ebp), %eax
	movl	(%eax), %eax
	sarl	$31, %eax
	andl	$-8192, %eax
	addl	$4096, %eax
	movl	%eax, gixy+4
	movl	gdz, %eax
	testl	%eax, %eax
	jns	.L346
	movl	$2147483647, gpz
	movl	$0, gdz
	jmp	.L347
.L346:
	leal	-108(%ebp), %eax
	movl	(%eax), %eax
	shrl	$31, %eax
	flds	_ZL9gposxfrac(,%eax,4)
	movl	gdz, %eax
	movl	%eax, -128(%ebp)
	fildl	-128(%ebp)
	fmulp	%st, %st(1)
	movl	$gpz, 4(%esp)
	fstps	(%esp)
	call	_ZL4ftolfPl
.L347:
	movl	gdz+4, %eax
	testl	%eax, %eax
	jns	.L348
	movl	$2147483647, gpz+4
	movl	$0, gdz+4
	jmp	.L349
.L348:
	leal	-104(%ebp), %eax
	movl	(%eax), %eax
	shrl	$31, %eax
	flds	_ZL9gposyfrac(,%eax,4)
	movl	gdz+4, %eax
	movl	%eax, -128(%ebp)
	fildl	-128(%ebp)
	fmulp	%st, %st(1)
	movl	$gpz+4, 4(%esp)
	fstps	(%esp)
	call	_ZL4ftolfPl
.L349:
	movl	$cfasm+4096, -64(%ebp)
	movl	-64(%ebp), %eax
	movl	%eax, -72(%ebp)
	movl	-56(%ebp), %eax
	movl	%eax, -60(%ebp)
	movl	-72(%ebp), %eax
	movl	-76(%ebp), %edx
	movl	%edx, 8(%eax)
	movl	-72(%ebp), %eax
	movl	-36(%ebp), %edx
	movl	%edx, 12(%eax)
	movl	_ZL8flashcnt, %edx
	movl	-100(%ebp), %eax
	leal	(%edx,%eax), %ebx
	call	rand
	addl	%ebx, %eax
	andl	$7, %eax
	movl	%eax, %edx
	sall	$9, %edx
	movl	-72(%ebp), %eax
	movl	%edx, 16(%eax)
	movl	-72(%ebp), %eax
	movl	16(%eax), %eax
	leal	511(%eax), %edx
	movl	-72(%ebp), %eax
	movl	%edx, 24(%eax)
	movl	20(%ebp), %eax
	movl	%eax, gxmax
	movl	gixy, %eax
	testl	%eax, %eax
	jns	.L350
	movl	-52(%ebp), %eax
	movl	%eax, -96(%ebp)
	jmp	.L351
.L350:
	movl	$1023, %eax
	subl	-52(%ebp), %eax
	movl	%eax, -96(%ebp)
.L351:
	movl	gdz, %eax
	movl	-96(%ebp), %edx
	movl	%edx, 4(%esp)
	movl	%eax, (%esp)
	call	_ZL5mul64ll
	movl	%eax, -32(%ebp)
	movl	%edx, -28(%ebp)
	movl	gpz, %eax
	movl	%eax, %edx
	sarl	$31, %edx
	addl	%eax, -32(%ebp)
	adcl	%edx, -28(%ebp)
	movl	gxmax, %eax
	movl	%eax, %edx
	sarl	$31, %edx
	cmpl	-28(%ebp), %edx
	jb	.L352
	cmpl	-28(%ebp), %edx
	ja	.L395
	cmpl	-32(%ebp), %eax
	jbe	.L352
.L395:
	movl	-32(%ebp), %eax
	movl	%eax, gxmax
.L352:
	movl	gixy+4, %eax
	testl	%eax, %eax
	jns	.L354
	movl	-48(%ebp), %eax
	movl	%eax, -96(%ebp)
	jmp	.L355
.L354:
	movl	$1023, %eax
	subl	-48(%ebp), %eax
	movl	%eax, -96(%ebp)
.L355:
	movl	gdz+4, %eax
	movl	-96(%ebp), %edx
	movl	%edx, 4(%esp)
	movl	%eax, (%esp)
	call	_ZL5mul64ll
	movl	%eax, -32(%ebp)
	movl	%edx, -28(%ebp)
	movl	gpz+4, %eax
	movl	%eax, %edx
	sarl	$31, %edx
	addl	%eax, -32(%ebp)
	adcl	%edx, -28(%ebp)
	movl	gxmax, %eax
	movl	%eax, %edx
	sarl	$31, %edx
	cmpl	-28(%ebp), %edx
	jb	.L356
	cmpl	-28(%ebp), %edx
	ja	.L396
	cmpl	-32(%ebp), %eax
	jbe	.L356
.L396:
	movl	-32(%ebp), %eax
	movl	%eax, gxmax
.L356:
	movl	gpz+4, %edx
	movl	gpz, %eax
	movl	%edx, %ecx
	subl	%eax, %ecx
	movl	%ecx, %eax
	shrl	$31, %eax
	movl	%eax, -96(%ebp)
	movl	-96(%ebp), %eax
	movl	gpz(,%eax,4), %eax
	movl	%eax, -92(%ebp)
	movl	gpixy, %eax
	movl	%eax, -84(%ebp)
	movl	gpixy, %eax
	movl	(%eax), %eax
	cmpl	-60(%ebp), %eax
	jne	.L398
	jmp	.L359
.L406:
	nop
	jmp	.L361
.L408:
	nop
.L361:
	movl	-60(%ebp), %eax
	addl	$1, %eax
	movzbl	(%eax), %eax
	movsbl	%al, %edx
	movl	-72(%ebp), %eax
	movl	12(%eax), %eax
	cmpl	%eax, %edx
	je	.L362
	movl	-60(%ebp), %eax
	addl	$1, %eax
	movzbl	(%eax), %eax
	movsbl	%al, %edx
	movl	-72(%ebp), %eax
	movl	12(%eax), %eax
	cmpl	%eax, %edx
	jle	.L363
	movl	-60(%ebp), %eax
	addl	$1, %eax
	movzbl	(%eax), %eax
	movsbl	%al, %edx
	movl	-72(%ebp), %eax
	movl	%edx, 12(%eax)
	jmp	.L362
.L363:
	movl	-72(%ebp), %eax
	movl	12(%eax), %eax
	leal	-1(%eax), %edx
	movl	-72(%ebp), %eax
	movl	%edx, 12(%eax)
	movl	-72(%ebp), %eax
	movl	12(%eax), %edx
	movl	-60(%ebp), %eax
	addl	$1, %eax
	movzbl	(%eax), %eax
	movsbl	%al, %eax
	movl	%edx, %ebx
	subl	%eax, %ebx
	movl	%ebx, %eax
	addl	$1, %eax
	sall	$2, %eax
	movl	%eax, %edx
	movl	-60(%ebp), %eax
	addl	%edx, %eax
	movl	%eax, -80(%ebp)
	jmp	.L364
.L366:
	movl	-80(%ebp), %eax
	movl	%eax, (%esp)
	call	_ZL11mmxcoloraddPl
	movl	-72(%ebp), %eax
	movl	24(%eax), %eax
	leal	-1(%eax), %edx
	movl	-72(%ebp), %eax
	movl	%edx, 24(%eax)
	movl	-72(%ebp), %eax
	movl	16(%eax), %edx
	movl	-72(%ebp), %eax
	movl	24(%eax), %eax
	cmpl	%eax, %edx
	jg	.L399
.L364:
	movl	-72(%ebp), %eax
	movl	24(%eax), %eax
	movl	_ZL3gfc+4(,%eax,8), %ecx
	movl	-72(%ebp), %eax
	movl	24(%eax), %eax
	movl	_ZL3gfc(,%eax,8), %edx
	movl	-72(%ebp), %eax
	movl	12(%eax), %eax
	movl	gylookup(,%eax,4), %eax
	movl	-88(%ebp), %ebx
	movl	%ebx, 12(%esp)
	movl	%ecx, 8(%esp)
	movl	%edx, 4(%esp)
	movl	%eax, (%esp)
	call	_ZL11dmulrethighllll
	shrl	$31, %eax
	testb	%al, %al
	jne	.L366
	movl	-60(%ebp), %eax
	addl	$1, %eax
	movzbl	(%eax), %eax
	movsbl	%al, %edx
	movl	-72(%ebp), %eax
	movl	12(%eax), %eax
	cmpl	%eax, %edx
	setne	%al
	testb	%al, %al
	jne	.L363
.L362:
	movl	-84(%ebp), %eax
	movl	(%eax), %eax
	cmpl	-60(%ebp), %eax
	je	.L400
.L367:
	movl	-60(%ebp), %eax
	addl	$3, %eax
	movzbl	(%eax), %eax
	movsbl	%al, %edx
	movl	-72(%ebp), %eax
	movl	8(%eax), %eax
	cmpl	%eax, %edx
	je	.L401
	movl	-60(%ebp), %eax
	addl	$3, %eax
	movzbl	(%eax), %eax
	movsbl	%al, %edx
	movl	-72(%ebp), %eax
	movl	8(%eax), %eax
	cmpl	%eax, %edx
	jge	.L368
	movl	-60(%ebp), %eax
	addl	$3, %eax
	movzbl	(%eax), %eax
	movsbl	%al, %edx
	movl	-72(%ebp), %eax
	movl	%edx, 8(%eax)
	jmp	.L401
.L368:
	movl	-72(%ebp), %eax
	movl	8(%eax), %eax
	leal	1(%eax), %edx
	movl	-72(%ebp), %eax
	movl	%edx, 8(%eax)
	movl	-72(%ebp), %eax
	movl	8(%eax), %edx
	movl	-60(%ebp), %eax
	addl	$3, %eax
	movzbl	(%eax), %eax
	movsbl	%al, %eax
	movl	%edx, %ecx
	subl	%eax, %ecx
	movl	%ecx, %eax
	subl	$1, %eax
	sall	$2, %eax
	movl	%eax, %edx
	movl	-60(%ebp), %eax
	addl	%edx, %eax
	movl	%eax, -80(%ebp)
	jmp	.L369
.L370:
	movl	-80(%ebp), %eax
	movl	%eax, (%esp)
	call	_ZL11mmxcoloraddPl
	movl	-72(%ebp), %eax
	movl	16(%eax), %eax
	leal	1(%eax), %edx
	movl	-72(%ebp), %eax
	movl	%edx, 16(%eax)
	movl	-72(%ebp), %eax
	movl	16(%eax), %edx
	movl	-72(%ebp), %eax
	movl	24(%eax), %eax
	cmpl	%eax, %edx
	jg	.L402
.L369:
	movl	-72(%ebp), %eax
	movl	16(%eax), %eax
	movl	_ZL3gfc+4(,%eax,8), %ecx
	movl	-72(%ebp), %eax
	movl	16(%eax), %eax
	movl	_ZL3gfc(,%eax,8), %edx
	movl	-72(%ebp), %eax
	movl	8(%eax), %eax
	movl	gylookup(,%eax,4), %eax
	movl	-88(%ebp), %ebx
	movl	%ebx, 12(%esp)
	movl	%ecx, 8(%esp)
	movl	%edx, 4(%esp)
	movl	%eax, (%esp)
	call	_ZL11dmulrethighllll
	notl	%eax
	shrl	$31, %eax
	testb	%al, %al
	jne	.L370
	movl	-60(%ebp), %eax
	addl	$3, %eax
	movzbl	(%eax), %eax
	movsbl	%al, %edx
	movl	-72(%ebp), %eax
	movl	8(%eax), %eax
	cmpl	%eax, %edx
	setne	%al
	testb	%al, %al
	jne	.L368
	jmp	.L401
.L398:
	nop
.L360:
	jmp	.L401
.L372:
	movl	-60(%ebp), %eax
	subl	$4, %eax
	movl	%eax, (%esp)
	call	_ZL11mmxcoloraddPl
	movl	-72(%ebp), %eax
	movl	16(%eax), %eax
	leal	1(%eax), %edx
	movl	-72(%ebp), %eax
	movl	%edx, 16(%eax)
	movl	-72(%ebp), %eax
	movl	16(%eax), %edx
	movl	-72(%ebp), %eax
	movl	24(%eax), %eax
	cmpl	%eax, %edx
	jg	.L403
	jmp	.L371
.L401:
	nop
.L371:
	movl	-72(%ebp), %eax
	movl	16(%eax), %eax
	movl	_ZL3gfc+4(,%eax,8), %ecx
	movl	-72(%ebp), %eax
	movl	16(%eax), %eax
	movl	_ZL3gfc(,%eax,8), %edx
	movl	-72(%ebp), %eax
	movl	8(%eax), %eax
	movl	gylookup(,%eax,4), %eax
	movl	-92(%ebp), %ebx
	movl	%ebx, 12(%esp)
	movl	%ecx, 8(%esp)
	movl	%edx, 4(%esp)
	movl	%eax, (%esp)
	call	_ZL11dmulrethighllll
	notl	%eax
	shrl	$31, %eax
	testb	%al, %al
	jne	.L372
	jmp	.L373
.L400:
	nop
.L359:
	jmp	.L373
.L374:
	movl	-60(%ebp), %eax
	addl	$4, %eax
	movl	%eax, (%esp)
	call	_ZL11mmxcoloraddPl
	movl	-72(%ebp), %eax
	movl	24(%eax), %eax
	leal	-1(%eax), %edx
	movl	-72(%ebp), %eax
	movl	%edx, 24(%eax)
	movl	-72(%ebp), %eax
	movl	16(%eax), %edx
	movl	-72(%ebp), %eax
	movl	24(%eax), %eax
	cmpl	%eax, %edx
	jg	.L404
.L373:
	movl	-72(%ebp), %eax
	movl	24(%eax), %eax
	movl	_ZL3gfc+4(,%eax,8), %ecx
	movl	-72(%ebp), %eax
	movl	24(%eax), %eax
	movl	_ZL3gfc(,%eax,8), %edx
	movl	-72(%ebp), %eax
	movl	12(%eax), %eax
	movl	gylookup(,%eax,4), %eax
	movl	-92(%ebp), %ebx
	movl	%ebx, 12(%esp)
	movl	%ecx, 8(%esp)
	movl	%edx, 4(%esp)
	movl	%eax, (%esp)
	call	_ZL11dmulrethighllll
	shrl	$31, %eax
	testb	%al, %al
	jne	.L374
.L375:
	subl	$32, -72(%ebp)
	cmpl	$cfasm+4096, -72(%ebp)
	jae	.L376
	movl	-96(%ebp), %eax
	movl	gixy(,%eax,4), %eax
	addl	%eax, -84(%ebp)
	movl	-96(%ebp), %eax
	movl	gpz(,%eax,4), %edx
	movl	-96(%ebp), %eax
	movl	gdz(,%eax,4), %eax
	addl	%eax, %edx
	movl	-96(%ebp), %eax
	movl	%edx, gpz(,%eax,4)
	movl	gpz+4, %edx
	movl	gpz, %eax
	movl	%edx, %ebx
	subl	%eax, %ebx
	movl	%ebx, %eax
	shrl	$31, %eax
	movl	%eax, -96(%ebp)
	movl	-92(%ebp), %eax
	movl	%eax, -88(%ebp)
	movl	-96(%ebp), %eax
	movl	gpz(,%eax,4), %eax
	movl	%eax, -92(%ebp)
	movl	gxmax, %eax
	cmpl	%eax, -92(%ebp)
	jg	.L405
.L377:
	movl	-84(%ebp), %eax
	movl	(%eax), %eax
	movl	%eax, -60(%ebp)
	movl	-64(%ebp), %eax
	movl	%eax, -72(%ebp)
.L376:
	movl	-60(%ebp), %eax
	movzbl	(%eax), %eax
	testb	%al, %al
	je	.L406
.L379:
	movl	-72(%ebp), %eax
	movl	16(%eax), %eax
	movl	_ZL3gfc+4(,%eax,8), %ecx
	movl	-72(%ebp), %eax
	movl	16(%eax), %eax
	movl	_ZL3gfc(,%eax,8), %edx
	movl	-60(%ebp), %eax
	addl	$2, %eax
	movzbl	(%eax), %eax
	movsbl	%al, %eax
	addl	$1, %eax
	movl	gylookup(,%eax,4), %eax
	movl	-88(%ebp), %ebx
	movl	%ebx, 12(%esp)
	movl	%ecx, 8(%esp)
	movl	%edx, 4(%esp)
	movl	%eax, (%esp)
	call	_ZL11dmulrethighllll
	notl	%eax
	shrl	$31, %eax
	testb	%al, %al
	jne	.L407
.L380:
	movl	-60(%ebp), %eax
	movzbl	(%eax), %eax
	movsbl	%al, %eax
	sall	$2, %eax
	addl	%eax, -60(%ebp)
	jmp	.L376
.L407:
	nop
.L397:
	movl	-72(%ebp), %eax
	movl	24(%eax), %eax
	movl	_ZL3gfc+4(,%eax,8), %ecx
	movl	-72(%ebp), %eax
	movl	24(%eax), %eax
	movl	_ZL3gfc(,%eax,8), %edx
	movl	-60(%ebp), %eax
	movzbl	(%eax), %eax
	movsbl	%al, %eax
	sall	$2, %eax
	leal	3(%eax), %ebx
	movl	-60(%ebp), %eax
	addl	%ebx, %eax
	movzbl	(%eax), %eax
	movsbl	%al, %eax
	movl	gylookup(,%eax,4), %eax
	movl	-88(%ebp), %ebx
	movl	%ebx, 12(%esp)
	movl	%ecx, 8(%esp)
	movl	%edx, 4(%esp)
	movl	%eax, (%esp)
	call	_ZL11dmulrethighllll
	shrl	$31, %eax
	testb	%al, %al
	je	.L408
	movl	-72(%ebp), %eax
	movl	24(%eax), %eax
	movl	%eax, -80(%ebp)
	jmp	.L383
.L384:
	subl	$1, -80(%ebp)
.L383:
	movl	-80(%ebp), %eax
	movl	_ZL3gfc+4(,%eax,8), %ecx
	movl	-80(%ebp), %eax
	movl	_ZL3gfc(,%eax,8), %edx
	movl	-60(%ebp), %eax
	addl	$2, %eax
	movzbl	(%eax), %eax
	movsbl	%al, %eax
	addl	$1, %eax
	movl	gylookup(,%eax,4), %eax
	movl	-88(%ebp), %ebx
	movl	%ebx, 12(%esp)
	movl	%ecx, 8(%esp)
	movl	%edx, 4(%esp)
	movl	%eax, (%esp)
	call	_ZL11dmulrethighllll
	shrl	$31, %eax
	testb	%al, %al
	jne	.L384
	addl	$32, -64(%ebp)
	cmpl	$cfasm+6144, -64(%ebp)
	jae	.L409
.L385:
	movl	-64(%ebp), %eax
	movl	%eax, -68(%ebp)
	jmp	.L386
.L387:
	movl	-68(%ebp), %eax
	movl	-68(%ebp), %edx
	movl	-32(%edx), %ecx
	movl	%ecx, (%eax)
	movl	-28(%edx), %ecx
	movl	%ecx, 4(%eax)
	movl	-24(%edx), %ecx
	movl	%ecx, 8(%eax)
	movl	-20(%edx), %ecx
	movl	%ecx, 12(%eax)
	movl	-16(%edx), %ecx
	movl	%ecx, 16(%eax)
	movl	-12(%edx), %ecx
	movl	%ecx, 20(%eax)
	movl	-8(%edx), %ecx
	movl	%ecx, 24(%eax)
	movl	-4(%edx), %edx
	movl	%edx, 28(%eax)
	subl	$32, -68(%ebp)
.L386:
	movl	-68(%ebp), %eax
	cmpl	-72(%ebp), %eax
	seta	%al
	testb	%al, %al
	jne	.L387
	movl	-72(%ebp), %eax
	leal	32(%eax), %edx
	movl	-80(%ebp), %eax
	movl	%eax, 24(%edx)
	movl	-80(%ebp), %eax
	leal	1(%eax), %edx
	movl	-72(%ebp), %eax
	movl	%edx, 16(%eax)
	movl	-72(%ebp), %eax
	leal	32(%eax), %ecx
	movl	-60(%ebp), %eax
	movzbl	(%eax), %eax
	movsbl	%al, %eax
	sall	$2, %eax
	leal	3(%eax), %edx
	movl	-60(%ebp), %eax
	addl	%edx, %eax
	movzbl	(%eax), %eax
	movsbl	%al, %edx
	movl	-72(%ebp), %eax
	movl	%edx, 8(%eax)
	movl	-72(%ebp), %eax
	movl	8(%eax), %eax
	movl	%eax, 12(%ecx)
	addl	$32, -72(%ebp)
	jmp	.L408
.L405:
	nop
	jmp	.L378
.L409:
	nop
	jmp	.L378
.L410:
	nop
.L378:
	addl	$1, -100(%ebp)
.L345:
	movl	-100(%ebp), %eax
	cmpl	24(%ebp), %eax
	setl	%al
	testb	%al, %al
	jne	.L388
	call	_ZL8clearMMXv
	movl	vx5+104, %edi
	movl	vx5+100, %esi
	movl	vx5+96, %ebx
	movl	vx5+92, %ecx
	movl	vx5+88, %edx
	movl	vx5+84, %eax
	movl	$0, 24(%esp)
	movl	%edi, 20(%esp)
	movl	%esi, 16(%esp)
	movl	%ebx, 12(%esp)
	movl	%ecx, 8(%esp)
	movl	%edx, 4(%esp)
	movl	%eax, (%esp)
.LEHB2:
	call	_Z10updatebboxlllllll
.LEHE2:
	jmp	.L337
.L399:
	nop
	jmp	.L365
.L402:
	nop
	jmp	.L365
.L403:
	nop
	jmp	.L365
.L404:
	nop
.L365:
	subl	$32, -64(%ebp)
	cmpl	$cfasm+4096, -64(%ebp)
	jb	.L410
.L389:
	movl	-72(%ebp), %eax
	movl	%eax, -68(%ebp)
	jmp	.L390
.L391:
	movl	-68(%ebp), %eax
	movl	-68(%ebp), %edx
	movl	32(%edx), %ecx
	movl	%ecx, (%eax)
	movl	36(%edx), %ecx
	movl	%ecx, 4(%eax)
	movl	40(%edx), %ecx
	movl	%ecx, 8(%eax)
	movl	44(%edx), %ecx
	movl	%ecx, 12(%eax)
	movl	48(%edx), %ecx
	movl	%ecx, 16(%eax)
	movl	52(%edx), %ecx
	movl	%ecx, 20(%eax)
	movl	56(%edx), %ecx
	movl	%ecx, 24(%eax)
	movl	60(%edx), %edx
	movl	%edx, 28(%eax)
	addl	$32, -68(%ebp)
.L390:
	movl	-68(%ebp), %eax
	cmpl	-64(%ebp), %eax
	setbe	%al
	testb	%al, %al
	jne	.L391
	jmp	.L375
.L394:
	movl	%eax, (%esp)
.LEHB3:
	call	_Unwind_Resume
.LEHE3:
.L337:
	addl	$156, %esp
	popl	%ebx
	.cfi_restore 3
	popl	%esi
	.cfi_restore 6
	popl	%edi
	.cfi_restore 7
	popl	%ebp
	.cfi_restore 5
	.cfi_def_cfa 4, 4
	ret
	.cfi_endproc
.LFE54:
	.section	.gcc_except_table
.LLSDA54:
	.byte	0xff
	.byte	0xff
	.byte	0x1
	.uleb128 .LLSDACSE54-.LLSDACSB54
.LLSDACSB54:
	.uleb128 .LEHB2-.LFB54
	.uleb128 .LEHE2-.LEHB2
	.uleb128 .L394-.LFB54
	.uleb128 0
	.uleb128 .LEHB3-.LFB54
	.uleb128 .LEHE3-.LEHB3
	.uleb128 0
	.uleb128 0
.LLSDACSE54:
	.text
	.size	_Z8setflashffflll, .-_Z8setflashffflll
	.data
	.align 32
	.type	_ZL6bitnum, @object
	.size	_ZL6bitnum, 32
_ZL6bitnum:
	.byte	0
	.byte	1
	.byte	1
	.byte	2
	.byte	1
	.byte	2
	.byte	2
	.byte	3
	.byte	1
	.byte	2
	.byte	2
	.byte	3
	.byte	2
	.byte	3
	.byte	3
	.byte	4
	.byte	1
	.byte	2
	.byte	2
	.byte	3
	.byte	2
	.byte	3
	.byte	3
	.byte	4
	.byte	2
	.byte	3
	.byte	3
	.byte	4
	.byte	3
	.byte	4
	.byte	4
	.byte	5
	.align 32
	.type	_ZL7bitsnum, @object
	.size	_ZL7bitsnum, 128
_ZL7bitsnum:
	.long	0
	.long	-131071
	.long	-65535
	.long	-196606
	.long	1
	.long	-131070
	.long	-65534
	.long	-196605
	.long	65537
	.long	-65534
	.long	2
	.long	-131069
	.long	65538
	.long	-65533
	.long	3
	.long	-131068
	.long	131073
	.long	2
	.long	65538
	.long	-65533
	.long	131074
	.long	3
	.long	65539
	.long	-65532
	.long	196610
	.long	65539
	.long	131075
	.long	4
	.long	196611
	.long	65540
	.long	131076
	.long	5
	.local	_ZL8fsqrecip
	.comm	_ZL8fsqrecip,23440,32
	.text
	.globl	_Z7estnormlllP7point3d
	.type	_Z7estnormlllP7point3d, @function
_Z7estnormlllP7point3d:
.LFB55:
	.cfi_startproc
	pushl	%ebp
	.cfi_def_cfa_offset 8
	.cfi_offset 5, -8
	movl	%esp, %ebp
	.cfi_def_cfa_register 5
	pushl	%ebx
	subl	$80, %esp
	.cfi_offset 3, -12
	movl	$0, -36(%ebp)
	movl	$0, -32(%ebp)
	movl	$0, -28(%ebp)
	movl	_ZL5xbsox, %eax
	movl	8(%ebp), %edx
	subl	%eax, %edx
	movl	%edx, %eax
	sarl	$31, %eax
	xorl	%eax, %edx
	subl	%eax, %edx
	movl	_ZL5xbsoy, %eax
	movl	12(%ebp), %ecx
	movl	%ecx, %ebx
	subl	%eax, %ebx
	movl	%ebx, %eax
	movl	%eax, %ecx
	sarl	$31, %ecx
	xorl	%ecx, %eax
	subl	%ecx, %eax
	addl	%edx, %eax
	cmpl	$1, %eax
	jle	.L412
	movl	8(%ebp), %eax
	movl	%eax, _ZL5xbsox
	movl	12(%ebp), %eax
	movl	%eax, _ZL5xbsoy
	movl	$120, _ZL5xbsof
	movl	$_ZL6xbsbuf+968, -52(%ebp)
	movl	$-2, -44(%ebp)
	jmp	.L413
.L416:
	movl	$-2, -48(%ebp)
	jmp	.L414
.L415:
	movl	-44(%ebp), %eax
	movl	12(%ebp), %edx
	leal	(%edx,%eax), %ecx
	movl	-48(%ebp), %eax
	movl	8(%ebp), %edx
	addl	%eax, %edx
	movl	-52(%ebp), %eax
	movl	%eax, 8(%esp)
	movl	%ecx, 4(%esp)
	movl	%edx, (%esp)
	call	_Z14expandbitstackllPx
	addl	$1, -48(%ebp)
	subl	$40, -52(%ebp)
.L414:
	cmpl	$2, -48(%ebp)
	setle	%al
	testb	%al, %al
	jne	.L415
	addl	$1, -44(%ebp)
.L413:
	cmpl	$2, -44(%ebp)
	setle	%al
	testb	%al, %al
	jne	.L416
	jmp	.L417
.L412:
	movl	_ZL5xbsox, %eax
	cmpl	%eax, 8(%ebp)
	je	.L418
	movl	_ZL5xbsox, %eax
	cmpl	%eax, 8(%ebp)
	jge	.L419
	movl	$-2, -48(%ebp)
	movl	_ZL5xbsof, %eax
	subl	$120, %eax
	movl	%eax, _ZL5xbsof
	movl	_ZL5xbsof, %eax
	addl	$1, %eax
	sall	$3, %eax
	addl	$_ZL6xbsbuf, %eax
	movl	%eax, -52(%ebp)
	jmp	.L420
.L419:
	movl	$2, -48(%ebp)
	movl	_ZL5xbsof, %eax
	subl	$24, %eax
	sall	$3, %eax
	addl	$_ZL6xbsbuf, %eax
	movl	%eax, -52(%ebp)
	movl	_ZL5xbsof, %eax
	subl	$5, %eax
	movl	%eax, _ZL5xbsof
.L420:
	movl	8(%ebp), %eax
	movl	%eax, _ZL5xbsox
	movl	_ZL5xbsof, %eax
	testl	%eax, %eax
	jns	.L421
	movl	_ZL5xbsof, %eax
	addl	$125, %eax
	movl	%eax, _ZL5xbsof
.L421:
	movl	$-2, -44(%ebp)
	jmp	.L422
.L424:
	cmpl	$_ZL6xbsbuf+8, -52(%ebp)
	jae	.L423
	addl	$1000, -52(%ebp)
.L423:
	movl	-44(%ebp), %eax
	movl	12(%ebp), %edx
	leal	(%edx,%eax), %ecx
	movl	-48(%ebp), %eax
	movl	8(%ebp), %edx
	addl	%eax, %edx
	movl	-52(%ebp), %eax
	movl	%eax, 8(%esp)
	movl	%ecx, 4(%esp)
	movl	%edx, (%esp)
	call	_Z14expandbitstackllPx
	subl	$200, -52(%ebp)
	addl	$1, -44(%ebp)
.L422:
	cmpl	$2, -44(%ebp)
	setle	%al
	testb	%al, %al
	jne	.L424
	jmp	.L417
.L418:
	movl	_ZL5xbsoy, %eax
	cmpl	%eax, 12(%ebp)
	je	.L417
	movl	_ZL5xbsoy, %eax
	cmpl	%eax, 12(%ebp)
	jge	.L425
	movl	$-2, -44(%ebp)
	movl	_ZL5xbsof, %eax
	subl	$100, %eax
	movl	%eax, _ZL5xbsof
	movl	_ZL5xbsof, %eax
	addl	$1, %eax
	sall	$3, %eax
	addl	$_ZL6xbsbuf, %eax
	movl	%eax, -52(%ebp)
	jmp	.L426
.L425:
	movl	$2, -44(%ebp)
	movl	_ZL5xbsof, %eax
	addl	$1, %eax
	sall	$3, %eax
	addl	$_ZL6xbsbuf, %eax
	movl	%eax, -52(%ebp)
	movl	_ZL5xbsof, %eax
	subl	$25, %eax
	movl	%eax, _ZL5xbsof
.L426:
	movl	12(%ebp), %eax
	movl	%eax, _ZL5xbsoy
	movl	_ZL5xbsof, %eax
	testl	%eax, %eax
	jns	.L427
	movl	_ZL5xbsof, %eax
	addl	$125, %eax
	movl	%eax, _ZL5xbsof
.L427:
	movl	$-2, -48(%ebp)
	jmp	.L428
.L430:
	cmpl	$_ZL6xbsbuf+8, -52(%ebp)
	jae	.L429
	addl	$1000, -52(%ebp)
.L429:
	movl	-44(%ebp), %eax
	movl	12(%ebp), %edx
	leal	(%edx,%eax), %ecx
	movl	-48(%ebp), %eax
	movl	8(%ebp), %edx
	addl	%eax, %edx
	movl	-52(%ebp), %eax
	movl	%eax, 8(%esp)
	movl	%ecx, 4(%esp)
	movl	%edx, (%esp)
	call	_Z14expandbitstackllPx
	subl	$40, -52(%ebp)
	addl	$1, -48(%ebp)
.L428:
	cmpl	$2, -48(%ebp)
	setle	%al
	testb	%al, %al
	jne	.L430
.L417:
	subl	$2, 16(%ebp)
	movl	16(%ebp), %eax
	andl	$31, %eax
	cmpl	$27, %eax
	jg	.L431
	movl	_ZL5xbsof, %eax
	addl	$1, %eax
	sall	$3, %eax
	addl	$_ZL6xbsbuf, %eax
	movl	16(%ebp), %edx
	andl	$-32, %edx
	sarl	$3, %edx
	addl	%edx, %eax
	movl	%eax, -52(%ebp)
	andl	$31, 16(%ebp)
	jmp	.L432
.L431:
	movl	_ZL5xbsof, %eax
	addl	$1, %eax
	sall	$3, %eax
	addl	$_ZL6xbsbuf, %eax
	movl	16(%ebp), %edx
	sarl	$3, %edx
	addl	%edx, %eax
	movl	%eax, -52(%ebp)
	andl	$7, 16(%ebp)
.L432:
	movl	$-2, -44(%ebp)
	jmp	.L433
.L440:
	cmpl	$_ZL6xbsbuf+408, -52(%ebp)
	jb	.L434
	movl	-52(%ebp), %eax
	movl	(%eax), %edx
	movl	16(%ebp), %eax
	movl	%edx, %ebx
	movl	%eax, %ecx
	sarl	%cl, %ebx
	movl	%ebx, %eax
	andl	$31, %eax
	movl	%eax, -24(%ebp)
	movl	-52(%ebp), %eax
	subl	$40, %eax
	movl	(%eax), %edx
	movl	16(%ebp), %eax
	movl	%edx, %ebx
	movl	%eax, %ecx
	sarl	%cl, %ebx
	movl	%ebx, %eax
	andl	$31, %eax
	movl	%eax, -20(%ebp)
	movl	-52(%ebp), %eax
	subl	$80, %eax
	movl	(%eax), %edx
	movl	16(%ebp), %eax
	movl	%edx, %ebx
	movl	%eax, %ecx
	sarl	%cl, %ebx
	movl	%ebx, %eax
	andl	$31, %eax
	movl	%eax, -16(%ebp)
	movl	-52(%ebp), %eax
	subl	$120, %eax
	movl	(%eax), %edx
	movl	16(%ebp), %eax
	movl	%edx, %ebx
	movl	%eax, %ecx
	sarl	%cl, %ebx
	movl	%ebx, %eax
	andl	$31, %eax
	movl	%eax, -12(%ebp)
	movl	-52(%ebp), %eax
	subl	$160, %eax
	movl	(%eax), %edx
	movl	16(%ebp), %eax
	movl	%edx, %ebx
	movl	%eax, %ecx
	sarl	%cl, %ebx
	movl	%ebx, %eax
	andl	$31, %eax
	movl	%eax, -8(%ebp)
	subl	$200, -52(%ebp)
	jmp	.L435
.L434:
	movl	-52(%ebp), %eax
	movl	(%eax), %edx
	movl	16(%ebp), %eax
	movl	%edx, %ebx
	movl	%eax, %ecx
	sarl	%cl, %ebx
	movl	%ebx, %eax
	andl	$31, %eax
	movl	%eax, -24(%ebp)
	subl	$40, -52(%ebp)
	cmpl	$_ZL6xbsbuf+8, -52(%ebp)
	jae	.L436
	addl	$1000, -52(%ebp)
.L436:
	movl	-52(%ebp), %eax
	movl	(%eax), %edx
	movl	16(%ebp), %eax
	movl	%edx, %ebx
	movl	%eax, %ecx
	sarl	%cl, %ebx
	movl	%ebx, %eax
	andl	$31, %eax
	movl	%eax, -20(%ebp)
	subl	$40, -52(%ebp)
	cmpl	$_ZL6xbsbuf+8, -52(%ebp)
	jae	.L437
	addl	$1000, -52(%ebp)
.L437:
	movl	-52(%ebp), %eax
	movl	(%eax), %edx
	movl	16(%ebp), %eax
	movl	%edx, %ebx
	movl	%eax, %ecx
	sarl	%cl, %ebx
	movl	%ebx, %eax
	andl	$31, %eax
	movl	%eax, -16(%ebp)
	subl	$40, -52(%ebp)
	cmpl	$_ZL6xbsbuf+8, -52(%ebp)
	jae	.L438
	addl	$1000, -52(%ebp)
.L438:
	movl	-52(%ebp), %eax
	movl	(%eax), %edx
	movl	16(%ebp), %eax
	movl	%edx, %ebx
	movl	%eax, %ecx
	sarl	%cl, %ebx
	movl	%ebx, %eax
	andl	$31, %eax
	movl	%eax, -12(%ebp)
	subl	$40, -52(%ebp)
	cmpl	$_ZL6xbsbuf+8, -52(%ebp)
	jae	.L439
	addl	$1000, -52(%ebp)
.L439:
	movl	-52(%ebp), %eax
	movl	(%eax), %edx
	movl	16(%ebp), %eax
	movl	%edx, %ebx
	movl	%eax, %ecx
	sarl	%cl, %ebx
	movl	%ebx, %eax
	andl	$31, %eax
	movl	%eax, -8(%ebp)
	subl	$40, -52(%ebp)
	cmpl	$_ZL6xbsbuf+8, -52(%ebp)
	jae	.L435
	addl	$1000, -52(%ebp)
.L435:
	movl	-36(%ebp), %edx
	movl	-8(%ebp), %eax
	movzbl	_ZL6bitnum(%eax), %eax
	movsbl	%al, %ecx
	movl	-24(%ebp), %eax
	movzbl	_ZL6bitnum(%eax), %eax
	movsbl	%al, %eax
	movl	%ecx, %ebx
	subl	%eax, %ebx
	movl	%ebx, %eax
	leal	(%eax,%eax), %ecx
	movl	-12(%ebp), %eax
	movzbl	_ZL6bitnum(%eax), %eax
	movsbl	%al, %eax
	addl	%eax, %ecx
	movl	-20(%ebp), %eax
	movzbl	_ZL6bitnum(%eax), %eax
	movsbl	%al, %eax
	movl	%ecx, %ebx
	subl	%eax, %ebx
	movl	%ebx, %eax
	addl	%edx, %eax
	movl	%eax, -36(%ebp)
	movl	-24(%ebp), %eax
	movl	_ZL7bitsnum(,%eax,4), %edx
	movl	-20(%ebp), %eax
	movl	_ZL7bitsnum(,%eax,4), %eax
	addl	%eax, %edx
	movl	-16(%ebp), %eax
	movl	_ZL7bitsnum(,%eax,4), %eax
	addl	%eax, %edx
	movl	-12(%ebp), %eax
	movl	_ZL7bitsnum(,%eax,4), %eax
	addl	%eax, %edx
	movl	-8(%ebp), %eax
	movl	_ZL7bitsnum(,%eax,4), %eax
	addl	%edx, %eax
	movl	%eax, -56(%ebp)
	movl	-28(%ebp), %edx
	movl	-56(%ebp), %eax
	addl	%edx, %eax
	movl	%eax, -28(%ebp)
	movl	-32(%ebp), %edx
	leal	-56(%ebp), %eax
	movzwl	(%eax), %eax
	cwtl
	imull	-44(%ebp), %eax
	addl	%edx, %eax
	movl	%eax, -32(%ebp)
	addl	$1, -44(%ebp)
.L433:
	cmpl	$2, -44(%ebp)
	setle	%al
	testb	%al, %al
	jne	.L440
	movl	-28(%ebp), %eax
	sarl	$16, %eax
	movl	%eax, -28(%ebp)
	movl	-36(%ebp), %edx
	movl	-36(%ebp), %eax
	imull	%eax, %edx
	movl	-32(%ebp), %ecx
	movl	-32(%ebp), %eax
	imull	%ecx, %eax
	leal	(%edx,%eax), %ecx
	movl	-28(%ebp), %edx
	movl	-28(%ebp), %eax
	imull	%edx, %eax
	addl	%ecx, %eax
	movl	_ZL8fsqrecip(,%eax,4), %eax
	movl	%eax, -40(%ebp)
	movl	-36(%ebp), %eax
	movl	%eax, -72(%ebp)
	fildl	-72(%ebp)
	fmuls	-40(%ebp)
	movl	20(%ebp), %eax
	fstps	(%eax)
	movl	-32(%ebp), %eax
	movl	%eax, -72(%ebp)
	fildl	-72(%ebp)
	fmuls	-40(%ebp)
	movl	20(%ebp), %eax
	fstps	4(%eax)
	movl	-28(%ebp), %eax
	movl	%eax, -72(%ebp)
	fildl	-72(%ebp)
	fmuls	-40(%ebp)
	movl	20(%ebp), %eax
	fstps	8(%eax)
	addl	$80, %esp
	popl	%ebx
	.cfi_restore 3
	popl	%ebp
	.cfi_restore 5
	.cfi_def_cfa 4, 4
	ret
	.cfi_endproc
.LFE55:
	.size	_Z7estnormlllP7point3d, .-_Z7estnormlllP7point3d
	.type	_ZL5vspanlll, @function
_ZL5vspanlll:
.LFB56:
	.cfi_startproc
	pushl	%ebp
	.cfi_def_cfa_offset 8
	.cfi_offset 5, -8
	movl	%esp, %ebp
	.cfi_def_cfa_register 5
	pushl	%ebx
	subl	$16, %esp
	.cfi_offset 3, -12
	movl	12(%ebp), %eax
	sarl	$5, %eax
	movl	%eax, -12(%ebp)
	movl	8(%ebp), %eax
	sall	$6, %eax
	addl	$_ZL4bbuf, %eax
	movl	%eax, -8(%ebp)
	movl	16(%ebp), %eax
	sarl	$5, %eax
	cmpl	-12(%ebp), %eax
	jne	.L442
	movl	-12(%ebp), %eax
	leal	0(,%eax,4), %edx
	movl	-8(%ebp), %eax
	addl	%edx, %eax
	movl	(%eax), %eax
	movl	%eax, -16(%ebp)
	movl	-12(%ebp), %eax
	leal	0(,%eax,4), %edx
	movl	-8(%ebp), %eax
	addl	%edx, %eax
	movl	-12(%ebp), %edx
	leal	0(,%edx,4), %ecx
	movl	-8(%ebp), %edx
	addl	%ecx, %edx
	movl	(%edx), %edx
	movl	16(%ebp), %ecx
	andl	$31, %ecx
	movl	_ZL3p2m(,%ecx,4), %ebx
	movl	12(%ebp), %ecx
	andl	$31, %ecx
	movl	_ZL3p2m(,%ecx,4), %ecx
	xorl	%ebx, %ecx
	notl	%ecx
	andl	%ecx, %edx
	movl	%edx, (%eax)
	movl	-12(%ebp), %eax
	leal	0(,%eax,4), %edx
	movl	-8(%ebp), %eax
	addl	%edx, %eax
	movl	(%eax), %eax
	xorl	-16(%ebp), %eax
	jmp	.L443
.L442:
	movl	-12(%ebp), %eax
	leal	0(,%eax,4), %edx
	movl	-8(%ebp), %eax
	addl	%edx, %eax
	movl	(%eax), %eax
	movl	12(%ebp), %edx
	andl	$31, %edx
	movl	_ZL3p2m(,%edx,4), %edx
	notl	%edx
	andl	%edx, %eax
	testl	%eax, %eax
	jne	.L444
	movl	16(%ebp), %eax
	sarl	$5, %eax
	leal	0(,%eax,4), %edx
	movl	-8(%ebp), %eax
	addl	%edx, %eax
	movl	(%eax), %edx
	movl	16(%ebp), %eax
	andl	$31, %eax
	movl	_ZL3p2m(,%eax,4), %eax
	andl	%edx, %eax
	testl	%eax, %eax
	jne	.L444
	movl	16(%ebp), %eax
	sarl	$5, %eax
	subl	$1, %eax
	movl	%eax, -16(%ebp)
	jmp	.L445
.L447:
	movl	-16(%ebp), %eax
	leal	0(,%eax,4), %edx
	movl	-8(%ebp), %eax
	addl	%edx, %eax
	movl	(%eax), %eax
	testl	%eax, %eax
	jne	.L450
.L446:
	subl	$1, -16(%ebp)
.L445:
	movl	-16(%ebp), %eax
	cmpl	-12(%ebp), %eax
	setg	%al
	testb	%al, %al
	jne	.L447
	movl	$0, %eax
	jmp	.L443
.L450:
	nop
.L444:
	movl	-12(%ebp), %eax
	leal	0(,%eax,4), %edx
	movl	-8(%ebp), %eax
	addl	%edx, %eax
	movl	-12(%ebp), %edx
	leal	0(,%edx,4), %ecx
	movl	-8(%ebp), %edx
	addl	%ecx, %edx
	movl	(%edx), %ecx
	movl	12(%ebp), %edx
	andl	$31, %edx
	movl	_ZL3p2m(,%edx,4), %edx
	andl	%ecx, %edx
	movl	%edx, (%eax)
	movl	16(%ebp), %eax
	sarl	$5, %eax
	leal	0(,%eax,4), %edx
	movl	-8(%ebp), %eax
	addl	%edx, %eax
	movl	16(%ebp), %edx
	sarl	$5, %edx
	leal	0(,%edx,4), %ecx
	movl	-8(%ebp), %edx
	addl	%ecx, %edx
	movl	(%edx), %edx
	movl	16(%ebp), %ecx
	andl	$31, %ecx
	movl	_ZL3p2m(,%ecx,4), %ecx
	notl	%ecx
	andl	%ecx, %edx
	movl	%edx, (%eax)
	movl	16(%ebp), %eax
	sarl	$5, %eax
	subl	$1, %eax
	movl	%eax, -16(%ebp)
	jmp	.L448
.L449:
	movl	-16(%ebp), %eax
	leal	0(,%eax,4), %edx
	movl	-8(%ebp), %eax
	addl	%edx, %eax
	movl	$0, (%eax)
	subl	$1, -16(%ebp)
.L448:
	movl	-16(%ebp), %eax
	cmpl	-12(%ebp), %eax
	setg	%al
	testb	%al, %al
	jne	.L449
	movl	$1, %eax
.L443:
	addl	$16, %esp
	popl	%ebx
	.cfi_restore 3
	popl	%ebp
	.cfi_restore 5
	.cfi_def_cfa 4, 4
	ret
	.cfi_endproc
.LFE56:
	.size	_ZL5vspanlll, .-_ZL5vspanlll
	.type	_ZL6docubelll, @function
_ZL6docubelll:
.LFB57:
	.cfi_startproc
	pushl	%ebp
	.cfi_def_cfa_offset 8
	.cfi_offset 5, -8
	movl	%esp, %ebp
	.cfi_def_cfa_register 5
	subl	$44, %esp
	movl	16(%ebp), %eax
	addl	$1, %eax
	imull	16(%ebp), %eax
	subl	$1, %eax
	sall	$2, %eax
	addl	$_ZL3ffx, %eax
	movl	%eax, _ZL6ffxptr
	movl	_ZL6ffxptr, %eax
	movl	8(%ebp), %edx
	sall	$2, %edx
	addl	%edx, %eax
	movzwl	(%eax), %eax
	movzwl	%ax, %eax
	movl	%eax, -20(%ebp)
	movl	_ZL6ffxptr, %eax
	movl	8(%ebp), %edx
	sall	$2, %edx
	addl	%edx, %eax
	movzwl	2(%eax), %eax
	movzwl	%ax, %eax
	movl	%eax, -12(%ebp)
	movl	_ZL6ffxptr, %eax
	movl	12(%ebp), %edx
	sall	$2, %edx
	addl	%edx, %eax
	movzwl	(%eax), %eax
	movzwl	%ax, %eax
	movl	%eax, -8(%ebp)
	movl	_ZL6ffxptr, %eax
	movl	12(%ebp), %edx
	sall	$2, %edx
	addl	%edx, %eax
	movzwl	2(%eax), %eax
	movzwl	%ax, %eax
	movl	%eax, -4(%ebp)
	movl	$0, -16(%ebp)
	jmp	.L452
.L453:
	movl	-4(%ebp), %eax
	movl	%eax, 8(%esp)
	movl	-8(%ebp), %eax
	movl	%eax, 4(%esp)
	movl	-20(%ebp), %eax
	movl	%eax, (%esp)
	call	_ZL5vspanlll
	orl	%eax, -16(%ebp)
	addl	$1, -20(%ebp)
.L452:
	movl	-20(%ebp), %eax
	cmpl	-12(%ebp), %eax
	setl	%al
	testb	%al, %al
	jne	.L453
	movl	-16(%ebp), %eax
	leave
	.cfi_restore 5
	.cfi_def_cfa 4, 4
	ret
	.cfi_endproc
.LFE57:
	.size	_ZL6docubelll, .-_ZL6docubelll
	.globl	_Z12setnormflashfffll
	.type	_Z12setnormflashfffll, @function
_Z12setnormflashfffll:
.LFB58:
	.cfi_startproc
	.cfi_personality 0,__gxx_personality_v0
	.cfi_lsda 0,.LLSDA58
	pushl	%ebp
	.cfi_def_cfa_offset 8
	.cfi_offset 5, -8
	movl	%esp, %ebp
	.cfi_def_cfa_register 5
	pushl	%edi
	pushl	%esi
	pushl	%ebx
	subl	$188, %esp
	.cfi_offset 7, -12
	.cfi_offset 6, -16
	.cfi_offset 3, -20
	movss	8(%ebp), %xmm0
	cvttss2si	%xmm0, %eax
	movl	%eax, -60(%ebp)
	movss	12(%ebp), %xmm0
	cvttss2si	%xmm0, %eax
	movl	%eax, -56(%ebp)
	movss	16(%ebp), %xmm0
	cvttss2si	%xmm0, %eax
	movl	%eax, -52(%ebp)
	movl	20(%ebp), %eax
	movl	-60(%ebp), %edx
	movl	%edx, %ecx
	subl	%eax, %ecx
	movl	%ecx, %eax
	addl	$1, %eax
	movl	%eax, vx5+84
	movl	20(%ebp), %eax
	movl	-60(%ebp), %edx
	addl	%edx, %eax
	movl	%eax, vx5+96
	movl	20(%ebp), %eax
	movl	-56(%ebp), %edx
	movl	%edx, %ebx
	subl	%eax, %ebx
	movl	%ebx, %eax
	addl	$1, %eax
	movl	%eax, vx5+88
	movl	20(%ebp), %eax
	movl	-56(%ebp), %edx
	addl	%edx, %eax
	movl	%eax, vx5+100
	movl	20(%ebp), %eax
	movl	-52(%ebp), %edx
	movl	%edx, %ecx
	subl	%eax, %ecx
	movl	%ecx, %eax
	addl	$1, %eax
	movl	%eax, vx5+92
	movl	20(%ebp), %eax
	movl	-52(%ebp), %edx
	addl	%edx, %eax
	movl	%eax, vx5+104
	movl	-52(%ebp), %eax
	movl	%eax, 8(%esp)
	movl	-56(%ebp), %eax
	movl	%eax, 4(%esp)
	movl	-60(%ebp), %eax
	movl	%eax, (%esp)
	call	_Z12isvoxelsolidlll
	testl	%eax, %eax
	setne	%al
	testb	%al, %al
	jne	.L598
	fildl	24(%ebp)
	fstps	-48(%ebp)
	cmpl	$256, 20(%ebp)
	jle	.L457
	movl	$256, 20(%ebp)
.L457:
	movl	$-17, _ZL5xbsox
	movl	$1, -112(%ebp)
	jmp	.L458
.L491:
	movl	$-1, 8(%esp)
	movl	$8192, 4(%esp)
	movl	$_ZL4bbuf, (%esp)
	call	_ZL8clearbufPvll
	movl	$1, -100(%ebp)
	jmp	.L459
.L490:
	cmpl	$0, -112(%ebp)
	je	.L460
	movl	-100(%ebp), %eax
	movl	-56(%ebp), %edx
	movl	%edx, %ebx
	subl	%eax, %ebx
	movl	%ebx, %eax
	movl	%eax, -88(%ebp)
	jmp	.L461
.L460:
	movl	-100(%ebp), %eax
	movl	-56(%ebp), %edx
	addl	%edx, %eax
	movl	%eax, -88(%ebp)
.L461:
	movl	$1, -84(%ebp)
	movl	-100(%ebp), %eax
	addl	$1, %eax
	movl	%eax, -76(%ebp)
	jmp	.L462
.L489:
	movl	-84(%ebp), %eax
	sarl	%eax
	movl	%eax, -104(%ebp)
	jmp	.L463
.L488:
	movl	-104(%ebp), %eax
	movl	-60(%ebp), %edx
	addl	%edx, %eax
	movl	%eax, -92(%ebp)
	movl	-88(%ebp), %eax
	movl	-92(%ebp), %edx
	orl	%edx, %eax
	cmpl	$1023, %eax
	ja	.L599
.L464:
	movl	-88(%ebp), %eax
	movl	%eax, %edx
	sall	$10, %edx
	movl	-92(%ebp), %eax
	addl	%edx, %eax
	movl	sptr(,%eax,4), %eax
	movl	%eax, -64(%ebp)
	movl	$0, -116(%ebp)
	movl	-104(%ebp), %eax
	movl	%eax, %edx
	imull	-104(%ebp), %edx
	movl	-100(%ebp), %eax
	imull	-100(%ebp), %eax
	addl	%edx, %eax
	movl	%eax, -68(%ebp)
.L482:
	movl	-64(%ebp), %eax
	addl	$1, %eax
	movzbl	(%eax), %eax
	movsbl	%al, %eax
	movl	%eax, -96(%ebp)
	jmp	.L466
.L473:
	movl	-52(%ebp), %eax
	movl	-96(%ebp), %edx
	movl	%edx, %ecx
	subl	%eax, %ecx
	movl	%ecx, %eax
	testl	%eax, %eax
	jns	.L467
	movl	-52(%ebp), %eax
	movl	-96(%ebp), %edx
	subl	%eax, %edx
	movl	-116(%ebp), %eax
	movl	%edx, tbuf2(,%eax,4)
	movl	-116(%ebp), %eax
	leal	1(%eax), %edx
	movl	-64(%ebp), %eax
	addl	$1, %eax
	movzbl	(%eax), %eax
	movsbl	%al, %eax
	movl	-96(%ebp), %ecx
	movl	%ecx, %ebx
	subl	%eax, %ebx
	movl	%ebx, %eax
	addl	$1, %eax
	sall	$2, %eax
	movl	%eax, %ecx
	movl	-64(%ebp), %eax
	addl	%ecx, %eax
	movl	%eax, tbuf2(,%edx,4)
	addl	$2, -116(%ebp)
	jmp	.L468
.L467:
	movl	-52(%ebp), %eax
	movl	-96(%ebp), %edx
	movl	%edx, %ecx
	subl	%eax, %ecx
	movl	%ecx, %eax
	cmpl	-100(%ebp), %eax
	jg	.L600
.L469:
	movl	-52(%ebp), %eax
	movl	-96(%ebp), %edx
	subl	%eax, %edx
	movl	-100(%ebp), %eax
	movl	%eax, 8(%esp)
	movl	%edx, 4(%esp)
	movl	-104(%ebp), %eax
	movl	%eax, (%esp)
	call	_ZL6docubelll
	testl	%eax, %eax
	sete	%al
	testb	%al, %al
	jne	.L601
.L471:
	leal	-36(%ebp), %eax
	movl	%eax, 12(%esp)
	movl	-96(%ebp), %eax
	movl	%eax, 8(%esp)
	movl	-88(%ebp), %eax
	movl	%eax, 4(%esp)
	movl	-92(%ebp), %eax
	movl	%eax, (%esp)
	call	_Z7estnormlllP7point3d
	cmpl	$0, -112(%ebp)
	je	.L472
	flds	-32(%ebp)
	fchs
	fstps	-32(%ebp)
.L472:
	flds	-36(%ebp)
	fildl	-104(%ebp)
	fmulp	%st, %st(1)
	flds	-32(%ebp)
	fildl	-100(%ebp)
	fmulp	%st, %st(1)
	faddp	%st, %st(1)
	flds	-28(%ebp)
	movl	-52(%ebp), %eax
	movl	-96(%ebp), %edx
	movl	%edx, %ebx
	subl	%eax, %ebx
	movl	%ebx, %eax
	movl	%eax, -124(%ebp)
	fildl	-124(%ebp)
	fmulp	%st, %st(1)
	faddp	%st, %st(1)
	fstps	-120(%ebp)
	leal	-120(%ebp), %eax
	movl	(%eax), %eax
	testl	%eax, %eax
	jle	.L468
	flds	-120(%ebp)
	fmuls	-48(%ebp)
	movl	-52(%ebp), %eax
	movl	-96(%ebp), %edx
	movl	%edx, %ecx
	subl	%eax, %ecx
	movl	-52(%ebp), %eax
	movl	-96(%ebp), %edx
	movl	%edx, %ebx
	subl	%eax, %ebx
	movl	%ebx, %eax
	movl	%ecx, %edx
	imull	%eax, %edx
	movl	-68(%ebp), %eax
	addl	%edx, %eax
	movl	%eax, -124(%ebp)
	fildl	-124(%ebp)
	fdivrp	%st, %st(1)
	fstps	-128(%ebp)
	cvttss2si	-128(%ebp), %eax
	movl	-64(%ebp), %edx
	addl	$1, %edx
	movzbl	(%edx), %edx
	movsbl	%dl, %edx
	movl	-96(%ebp), %ecx
	movl	%ecx, %ebx
	subl	%edx, %ebx
	movl	%ebx, %edx
	sall	$2, %edx
	leal	7(%edx), %ecx
	movl	-64(%ebp), %edx
	addl	%ecx, %edx
	movl	%eax, 4(%esp)
	movl	%edx, (%esp)
	call	_ZL6addusbPcl
	jmp	.L468
.L601:
	nop
.L468:
	addl	$1, -96(%ebp)
.L466:
	movl	-64(%ebp), %eax
	addl	$2, %eax
	movzbl	(%eax), %eax
	movsbl	%al, %eax
	cmpl	-96(%ebp), %eax
	setge	%al
	testb	%al, %al
	jne	.L473
	movl	-64(%ebp), %eax
	movzbl	(%eax), %eax
	testb	%al, %al
	je	.L602
.L474:
	movl	-64(%ebp), %eax
	addl	$2, %eax
	movzbl	(%eax), %eax
	movsbl	%al, %edx
	movl	-64(%ebp), %eax
	addl	$1, %eax
	movzbl	(%eax), %eax
	movsbl	%al, %eax
	subl	%eax, %edx
	movl	-64(%ebp), %eax
	movzbl	(%eax), %eax
	movsbl	%al, %eax
	movl	%edx, %ecx
	subl	%eax, %ecx
	movl	%ecx, %eax
	addl	$2, %eax
	movl	%eax, -44(%ebp)
	movl	-64(%ebp), %eax
	movzbl	(%eax), %eax
	movsbl	%al, %eax
	sall	$2, %eax
	addl	%eax, -64(%ebp)
	movl	-64(%ebp), %eax
	addl	$3, %eax
	movzbl	(%eax), %eax
	movsbl	%al, %edx
	movl	-44(%ebp), %eax
	addl	%edx, %eax
	movl	%eax, -96(%ebp)
	jmp	.L475
.L481:
	movl	-96(%ebp), %eax
	cmpl	-52(%ebp), %eax
	jge	.L476
	movl	-52(%ebp), %eax
	movl	-96(%ebp), %edx
	subl	%eax, %edx
	movl	-116(%ebp), %eax
	movl	%edx, tbuf2(,%eax,4)
	movl	-116(%ebp), %eax
	leal	1(%eax), %edx
	movl	-64(%ebp), %eax
	addl	$3, %eax
	movzbl	(%eax), %eax
	movsbl	%al, %eax
	movl	-96(%ebp), %ecx
	movl	%ecx, %ebx
	subl	%eax, %ebx
	movl	%ebx, %eax
	sall	$2, %eax
	movl	%eax, %ecx
	movl	-64(%ebp), %eax
	addl	%ecx, %eax
	movl	%eax, tbuf2(,%edx,4)
	addl	$2, -116(%ebp)
	jmp	.L477
.L476:
	movl	-52(%ebp), %eax
	movl	-96(%ebp), %edx
	movl	%edx, %ecx
	subl	%eax, %ecx
	movl	%ecx, %eax
	cmpl	-100(%ebp), %eax
	jg	.L603
.L478:
	movl	-52(%ebp), %eax
	movl	-96(%ebp), %edx
	subl	%eax, %edx
	movl	-100(%ebp), %eax
	movl	%eax, 8(%esp)
	movl	%edx, 4(%esp)
	movl	-104(%ebp), %eax
	movl	%eax, (%esp)
	call	_ZL6docubelll
	testl	%eax, %eax
	sete	%al
	testb	%al, %al
	jne	.L604
.L479:
	leal	-36(%ebp), %eax
	movl	%eax, 12(%esp)
	movl	-96(%ebp), %eax
	movl	%eax, 8(%esp)
	movl	-88(%ebp), %eax
	movl	%eax, 4(%esp)
	movl	-92(%ebp), %eax
	movl	%eax, (%esp)
	call	_Z7estnormlllP7point3d
	cmpl	$0, -112(%ebp)
	je	.L480
	flds	-32(%ebp)
	fchs
	fstps	-32(%ebp)
.L480:
	flds	-36(%ebp)
	fildl	-104(%ebp)
	fmulp	%st, %st(1)
	flds	-32(%ebp)
	fildl	-100(%ebp)
	fmulp	%st, %st(1)
	faddp	%st, %st(1)
	flds	-28(%ebp)
	movl	-52(%ebp), %eax
	movl	-96(%ebp), %edx
	movl	%edx, %ebx
	subl	%eax, %ebx
	movl	%ebx, %eax
	movl	%eax, -124(%ebp)
	fildl	-124(%ebp)
	fmulp	%st, %st(1)
	faddp	%st, %st(1)
	fstps	-120(%ebp)
	leal	-120(%ebp), %eax
	movl	(%eax), %eax
	testl	%eax, %eax
	jle	.L477
	flds	-120(%ebp)
	fmuls	-48(%ebp)
	movl	-52(%ebp), %eax
	movl	-96(%ebp), %edx
	movl	%edx, %ecx
	subl	%eax, %ecx
	movl	-52(%ebp), %eax
	movl	-96(%ebp), %edx
	movl	%edx, %ebx
	subl	%eax, %ebx
	movl	%ebx, %eax
	movl	%ecx, %edx
	imull	%eax, %edx
	movl	-68(%ebp), %eax
	addl	%edx, %eax
	movl	%eax, -124(%ebp)
	fildl	-124(%ebp)
	fdivrp	%st, %st(1)
	fstps	-132(%ebp)
	cvttss2si	-132(%ebp), %eax
	movl	-64(%ebp), %edx
	addl	$3, %edx
	movzbl	(%edx), %edx
	movsbl	%dl, %edx
	movl	-96(%ebp), %ecx
	movl	%ecx, %ebx
	subl	%edx, %ebx
	movl	%ebx, %edx
	sall	$2, %edx
	leal	3(%edx), %ecx
	movl	-64(%ebp), %edx
	addl	%ecx, %edx
	movl	%eax, 4(%esp)
	movl	%edx, (%esp)
	call	_ZL6addusbPcl
	jmp	.L477
.L604:
	nop
.L477:
	addl	$1, -96(%ebp)
.L475:
	movl	-64(%ebp), %eax
	addl	$3, %eax
	movzbl	(%eax), %eax
	movsbl	%al, %eax
	cmpl	-96(%ebp), %eax
	setg	%al
	testb	%al, %al
	jne	.L481
	jmp	.L482
.L600:
	nop
	jmp	.L470
.L602:
	nop
	jmp	.L470
.L603:
	nop
.L470:
	jmp	.L483
.L487:
	subl	$2, -116(%ebp)
	movl	-116(%ebp), %eax
	movl	tbuf2(,%eax,4), %eax
	movl	-100(%ebp), %edx
	negl	%edx
	cmpl	%edx, %eax
	jl	.L605
.L484:
	movl	-116(%ebp), %eax
	movl	tbuf2(,%eax,4), %eax
	movl	-100(%ebp), %edx
	movl	%edx, 8(%esp)
	movl	%eax, 4(%esp)
	movl	-104(%ebp), %eax
	movl	%eax, (%esp)
	call	_ZL6docubelll
	testl	%eax, %eax
	sete	%al
	testb	%al, %al
	jne	.L606
.L485:
	movl	-116(%ebp), %eax
	movl	tbuf2(,%eax,4), %edx
	movl	-52(%ebp), %eax
	addl	%eax, %edx
	leal	-36(%ebp), %eax
	movl	%eax, 12(%esp)
	movl	%edx, 8(%esp)
	movl	-88(%ebp), %eax
	movl	%eax, 4(%esp)
	movl	-92(%ebp), %eax
	movl	%eax, (%esp)
	call	_Z7estnormlllP7point3d
	cmpl	$0, -112(%ebp)
	je	.L486
	flds	-32(%ebp)
	fchs
	fstps	-32(%ebp)
.L486:
	flds	-36(%ebp)
	fildl	-104(%ebp)
	fmulp	%st, %st(1)
	flds	-32(%ebp)
	fildl	-100(%ebp)
	fmulp	%st, %st(1)
	faddp	%st, %st(1)
	flds	-28(%ebp)
	movl	-116(%ebp), %eax
	movl	tbuf2(,%eax,4), %eax
	movl	%eax, -124(%ebp)
	fildl	-124(%ebp)
	fmulp	%st, %st(1)
	faddp	%st, %st(1)
	fstps	-120(%ebp)
	leal	-120(%ebp), %eax
	movl	(%eax), %eax
	testl	%eax, %eax
	jle	.L483
	flds	-120(%ebp)
	fmuls	-48(%ebp)
	movl	-116(%ebp), %eax
	movl	tbuf2(,%eax,4), %edx
	movl	-116(%ebp), %eax
	movl	tbuf2(,%eax,4), %eax
	imull	%eax, %edx
	movl	-68(%ebp), %eax
	addl	%edx, %eax
	movl	%eax, -124(%ebp)
	fildl	-124(%ebp)
	fdivrp	%st, %st(1)
	fstps	-136(%ebp)
	cvttss2si	-136(%ebp), %edx
	movl	-116(%ebp), %eax
	addl	$1, %eax
	movl	tbuf2(,%eax,4), %eax
	addl	$3, %eax
	movl	%edx, 4(%esp)
	movl	%eax, (%esp)
	call	_ZL6addusbPcl
	jmp	.L483
.L606:
	nop
.L483:
	cmpl	$0, -116(%ebp)
	setg	%al
	testb	%al, %al
	jne	.L487
	jmp	.L465
.L599:
	nop
	jmp	.L465
.L605:
	nop
.L465:
	movl	-84(%ebp), %eax
	addl	%eax, -104(%ebp)
.L463:
	movl	-104(%ebp), %eax
	cmpl	-76(%ebp), %eax
	setne	%al
	testb	%al, %al
	jne	.L488
	subl	$2, -84(%ebp)
	negl	-76(%ebp)
.L462:
	cmpl	$-1, -84(%ebp)
	setge	%al
	testb	%al, %al
	jne	.L489
	addl	$1, -100(%ebp)
.L459:
	movl	-100(%ebp), %eax
	cmpl	20(%ebp), %eax
	setl	%al
	testb	%al, %al
	jne	.L490
	subl	$1, -112(%ebp)
.L458:
	movl	-112(%ebp), %eax
	notl	%eax
	shrl	$31, %eax
	testb	%al, %al
	jne	.L491
	movl	$1, -112(%ebp)
	jmp	.L492
.L534:
	movl	$-1, 8(%esp)
	movl	$8192, 4(%esp)
	movl	$_ZL4bbuf, (%esp)
	call	_ZL8clearbufPvll
	movl	$1, -100(%ebp)
	jmp	.L493
.L533:
	cmpl	$0, -112(%ebp)
	je	.L494
	movl	-100(%ebp), %eax
	movl	-60(%ebp), %edx
	movl	%edx, %ecx
	subl	%eax, %ecx
	movl	%ecx, %eax
	movl	%eax, -92(%ebp)
	jmp	.L495
.L494:
	movl	-100(%ebp), %eax
	movl	-60(%ebp), %edx
	addl	%edx, %eax
	movl	%eax, -92(%ebp)
.L495:
	movl	$1, -84(%ebp)
	movl	-100(%ebp), %eax
	addl	$1, %eax
	movl	%eax, -76(%ebp)
	jmp	.L496
.L532:
	movl	-84(%ebp), %eax
	sarl	%eax
	movl	%eax, -104(%ebp)
	jmp	.L497
.L531:
	movl	-104(%ebp), %eax
	movl	-56(%ebp), %edx
	addl	%edx, %eax
	movl	%eax, -88(%ebp)
	movl	-88(%ebp), %eax
	movl	-92(%ebp), %edx
	orl	%edx, %eax
	cmpl	$1023, %eax
	ja	.L607
.L498:
	movl	-88(%ebp), %eax
	movl	%eax, %edx
	sall	$10, %edx
	movl	-92(%ebp), %eax
	addl	%edx, %eax
	movl	sptr(,%eax,4), %eax
	movl	%eax, -64(%ebp)
	movl	$0, -116(%ebp)
	movl	-104(%ebp), %eax
	movl	%eax, %edx
	imull	-104(%ebp), %edx
	movl	-100(%ebp), %eax
	imull	-100(%ebp), %eax
	addl	%edx, %eax
	movl	%eax, -68(%ebp)
	movl	-84(%ebp), %eax
	movl	-104(%ebp), %edx
	addl	%edx, %eax
	subl	-76(%ebp), %eax
	movl	%eax, -40(%ebp)
.L522:
	movl	-64(%ebp), %eax
	addl	$1, %eax
	movzbl	(%eax), %eax
	movsbl	%al, %eax
	movl	%eax, -96(%ebp)
	jmp	.L500
.L510:
	movl	-52(%ebp), %eax
	movl	-96(%ebp), %edx
	movl	%edx, %ebx
	subl	%eax, %ebx
	movl	%ebx, %eax
	testl	%eax, %eax
	jns	.L501
	movl	-52(%ebp), %eax
	movl	-96(%ebp), %edx
	subl	%eax, %edx
	movl	-116(%ebp), %eax
	movl	%edx, tbuf2(,%eax,4)
	movl	-116(%ebp), %eax
	leal	1(%eax), %edx
	movl	-64(%ebp), %eax
	addl	$1, %eax
	movzbl	(%eax), %eax
	movsbl	%al, %eax
	movl	-96(%ebp), %ecx
	movl	%ecx, %ebx
	subl	%eax, %ebx
	movl	%ebx, %eax
	addl	$1, %eax
	sall	$2, %eax
	movl	%eax, %ecx
	movl	-64(%ebp), %eax
	addl	%ecx, %eax
	movl	%eax, tbuf2(,%edx,4)
	addl	$2, -116(%ebp)
	jmp	.L502
.L501:
	movl	-52(%ebp), %eax
	movl	-96(%ebp), %edx
	movl	%edx, %ecx
	subl	%eax, %ecx
	movl	%ecx, %eax
	cmpl	-100(%ebp), %eax
	jg	.L608
.L503:
	movl	-52(%ebp), %eax
	movl	-96(%ebp), %edx
	subl	%eax, %edx
	movl	-100(%ebp), %eax
	movl	%eax, 8(%esp)
	movl	%edx, 4(%esp)
	movl	-104(%ebp), %eax
	movl	%eax, (%esp)
	call	_ZL6docubelll
	testl	%eax, %eax
	je	.L505
	cmpl	$0, -40(%ebp)
	jne	.L506
.L505:
	movl	$1, %eax
	jmp	.L507
.L506:
	movl	$0, %eax
.L507:
	testb	%al, %al
	jne	.L609
.L508:
	leal	-36(%ebp), %eax
	movl	%eax, 12(%esp)
	movl	-96(%ebp), %eax
	movl	%eax, 8(%esp)
	movl	-88(%ebp), %eax
	movl	%eax, 4(%esp)
	movl	-92(%ebp), %eax
	movl	%eax, (%esp)
	call	_Z7estnormlllP7point3d
	cmpl	$0, -112(%ebp)
	je	.L509
	flds	-36(%ebp)
	fchs
	fstps	-36(%ebp)
.L509:
	flds	-36(%ebp)
	fildl	-100(%ebp)
	fmulp	%st, %st(1)
	flds	-32(%ebp)
	fildl	-104(%ebp)
	fmulp	%st, %st(1)
	faddp	%st, %st(1)
	flds	-28(%ebp)
	movl	-52(%ebp), %eax
	movl	-96(%ebp), %edx
	movl	%edx, %ebx
	subl	%eax, %ebx
	movl	%ebx, %eax
	movl	%eax, -124(%ebp)
	fildl	-124(%ebp)
	fmulp	%st, %st(1)
	faddp	%st, %st(1)
	fstps	-120(%ebp)
	leal	-120(%ebp), %eax
	movl	(%eax), %eax
	testl	%eax, %eax
	jle	.L502
	flds	-120(%ebp)
	fmuls	-48(%ebp)
	movl	-52(%ebp), %eax
	movl	-96(%ebp), %edx
	movl	%edx, %ecx
	subl	%eax, %ecx
	movl	-52(%ebp), %eax
	movl	-96(%ebp), %edx
	movl	%edx, %ebx
	subl	%eax, %ebx
	movl	%ebx, %eax
	movl	%ecx, %edx
	imull	%eax, %edx
	movl	-68(%ebp), %eax
	addl	%edx, %eax
	movl	%eax, -124(%ebp)
	fildl	-124(%ebp)
	fdivrp	%st, %st(1)
	fstps	-140(%ebp)
	cvttss2si	-140(%ebp), %eax
	movl	-64(%ebp), %edx
	addl	$1, %edx
	movzbl	(%edx), %edx
	movsbl	%dl, %edx
	movl	-96(%ebp), %ecx
	movl	%ecx, %ebx
	subl	%edx, %ebx
	movl	%ebx, %edx
	sall	$2, %edx
	leal	7(%edx), %ecx
	movl	-64(%ebp), %edx
	addl	%ecx, %edx
	movl	%eax, 4(%esp)
	movl	%edx, (%esp)
	call	_ZL6addusbPcl
	jmp	.L502
.L609:
	nop
.L502:
	addl	$1, -96(%ebp)
.L500:
	movl	-64(%ebp), %eax
	addl	$2, %eax
	movzbl	(%eax), %eax
	movsbl	%al, %eax
	cmpl	-96(%ebp), %eax
	setge	%al
	testb	%al, %al
	jne	.L510
	movl	-64(%ebp), %eax
	movzbl	(%eax), %eax
	testb	%al, %al
	je	.L610
.L511:
	movl	-64(%ebp), %eax
	addl	$2, %eax
	movzbl	(%eax), %eax
	movsbl	%al, %edx
	movl	-64(%ebp), %eax
	addl	$1, %eax
	movzbl	(%eax), %eax
	movsbl	%al, %eax
	subl	%eax, %edx
	movl	-64(%ebp), %eax
	movzbl	(%eax), %eax
	movsbl	%al, %eax
	movl	%edx, %ecx
	subl	%eax, %ecx
	movl	%ecx, %eax
	addl	$2, %eax
	movl	%eax, -44(%ebp)
	movl	-64(%ebp), %eax
	movzbl	(%eax), %eax
	movsbl	%al, %eax
	sall	$2, %eax
	addl	%eax, -64(%ebp)
	movl	-64(%ebp), %eax
	addl	$3, %eax
	movzbl	(%eax), %eax
	movsbl	%al, %edx
	movl	-44(%ebp), %eax
	addl	%edx, %eax
	movl	%eax, -96(%ebp)
	jmp	.L512
.L521:
	movl	-96(%ebp), %eax
	cmpl	-52(%ebp), %eax
	jge	.L513
	movl	-52(%ebp), %eax
	movl	-96(%ebp), %edx
	subl	%eax, %edx
	movl	-116(%ebp), %eax
	movl	%edx, tbuf2(,%eax,4)
	movl	-116(%ebp), %eax
	leal	1(%eax), %edx
	movl	-64(%ebp), %eax
	addl	$3, %eax
	movzbl	(%eax), %eax
	movsbl	%al, %eax
	movl	-96(%ebp), %ecx
	movl	%ecx, %ebx
	subl	%eax, %ebx
	movl	%ebx, %eax
	sall	$2, %eax
	movl	%eax, %ecx
	movl	-64(%ebp), %eax
	addl	%ecx, %eax
	movl	%eax, tbuf2(,%edx,4)
	addl	$2, -116(%ebp)
	jmp	.L514
.L513:
	movl	-52(%ebp), %eax
	movl	-96(%ebp), %edx
	movl	%edx, %ecx
	subl	%eax, %ecx
	movl	%ecx, %eax
	cmpl	-100(%ebp), %eax
	jg	.L611
.L515:
	movl	-52(%ebp), %eax
	movl	-96(%ebp), %edx
	subl	%eax, %edx
	movl	-100(%ebp), %eax
	movl	%eax, 8(%esp)
	movl	%edx, 4(%esp)
	movl	-104(%ebp), %eax
	movl	%eax, (%esp)
	call	_ZL6docubelll
	testl	%eax, %eax
	je	.L516
	cmpl	$0, -40(%ebp)
	jne	.L517
.L516:
	movl	$1, %eax
	jmp	.L518
.L517:
	movl	$0, %eax
.L518:
	testb	%al, %al
	jne	.L612
.L519:
	leal	-36(%ebp), %eax
	movl	%eax, 12(%esp)
	movl	-96(%ebp), %eax
	movl	%eax, 8(%esp)
	movl	-88(%ebp), %eax
	movl	%eax, 4(%esp)
	movl	-92(%ebp), %eax
	movl	%eax, (%esp)
	call	_Z7estnormlllP7point3d
	cmpl	$0, -112(%ebp)
	je	.L520
	flds	-36(%ebp)
	fchs
	fstps	-36(%ebp)
.L520:
	flds	-36(%ebp)
	fildl	-100(%ebp)
	fmulp	%st, %st(1)
	flds	-32(%ebp)
	fildl	-104(%ebp)
	fmulp	%st, %st(1)
	faddp	%st, %st(1)
	flds	-28(%ebp)
	movl	-52(%ebp), %eax
	movl	-96(%ebp), %edx
	movl	%edx, %ebx
	subl	%eax, %ebx
	movl	%ebx, %eax
	movl	%eax, -124(%ebp)
	fildl	-124(%ebp)
	fmulp	%st, %st(1)
	faddp	%st, %st(1)
	fstps	-120(%ebp)
	leal	-120(%ebp), %eax
	movl	(%eax), %eax
	testl	%eax, %eax
	jle	.L514
	flds	-120(%ebp)
	fmuls	-48(%ebp)
	movl	-52(%ebp), %eax
	movl	-96(%ebp), %edx
	movl	%edx, %ecx
	subl	%eax, %ecx
	movl	-52(%ebp), %eax
	movl	-96(%ebp), %edx
	movl	%edx, %ebx
	subl	%eax, %ebx
	movl	%ebx, %eax
	movl	%ecx, %edx
	imull	%eax, %edx
	movl	-68(%ebp), %eax
	addl	%edx, %eax
	movl	%eax, -124(%ebp)
	fildl	-124(%ebp)
	fdivrp	%st, %st(1)
	fstps	-144(%ebp)
	cvttss2si	-144(%ebp), %eax
	movl	-64(%ebp), %edx
	addl	$3, %edx
	movzbl	(%edx), %edx
	movsbl	%dl, %edx
	movl	-96(%ebp), %ecx
	movl	%ecx, %ebx
	subl	%edx, %ebx
	movl	%ebx, %edx
	sall	$2, %edx
	leal	3(%edx), %ecx
	movl	-64(%ebp), %edx
	addl	%ecx, %edx
	movl	%eax, 4(%esp)
	movl	%edx, (%esp)
	call	_ZL6addusbPcl
	jmp	.L514
.L612:
	nop
.L514:
	addl	$1, -96(%ebp)
.L512:
	movl	-64(%ebp), %eax
	addl	$3, %eax
	movzbl	(%eax), %eax
	movsbl	%al, %eax
	cmpl	-96(%ebp), %eax
	setg	%al
	testb	%al, %al
	jne	.L521
	jmp	.L522
.L608:
	nop
	jmp	.L504
.L610:
	nop
	jmp	.L504
.L611:
	nop
.L504:
	jmp	.L523
.L530:
	subl	$2, -116(%ebp)
	movl	-116(%ebp), %eax
	movl	tbuf2(,%eax,4), %eax
	movl	-100(%ebp), %edx
	negl	%edx
	cmpl	%edx, %eax
	jl	.L613
.L524:
	movl	-116(%ebp), %eax
	movl	tbuf2(,%eax,4), %eax
	movl	-100(%ebp), %edx
	movl	%edx, 8(%esp)
	movl	%eax, 4(%esp)
	movl	-104(%ebp), %eax
	movl	%eax, (%esp)
	call	_ZL6docubelll
	testl	%eax, %eax
	je	.L525
	cmpl	$0, -40(%ebp)
	jne	.L526
.L525:
	movl	$1, %eax
	jmp	.L527
.L526:
	movl	$0, %eax
.L527:
	testb	%al, %al
	jne	.L614
.L528:
	movl	-116(%ebp), %eax
	movl	tbuf2(,%eax,4), %edx
	movl	-52(%ebp), %eax
	addl	%eax, %edx
	leal	-36(%ebp), %eax
	movl	%eax, 12(%esp)
	movl	%edx, 8(%esp)
	movl	-88(%ebp), %eax
	movl	%eax, 4(%esp)
	movl	-92(%ebp), %eax
	movl	%eax, (%esp)
	call	_Z7estnormlllP7point3d
	cmpl	$0, -112(%ebp)
	je	.L529
	flds	-36(%ebp)
	fchs
	fstps	-36(%ebp)
.L529:
	flds	-36(%ebp)
	fildl	-100(%ebp)
	fmulp	%st, %st(1)
	flds	-32(%ebp)
	fildl	-104(%ebp)
	fmulp	%st, %st(1)
	faddp	%st, %st(1)
	flds	-28(%ebp)
	movl	-116(%ebp), %eax
	movl	tbuf2(,%eax,4), %eax
	movl	%eax, -124(%ebp)
	fildl	-124(%ebp)
	fmulp	%st, %st(1)
	faddp	%st, %st(1)
	fstps	-120(%ebp)
	leal	-120(%ebp), %eax
	movl	(%eax), %eax
	testl	%eax, %eax
	jle	.L523
	flds	-120(%ebp)
	fmuls	-48(%ebp)
	movl	-116(%ebp), %eax
	movl	tbuf2(,%eax,4), %edx
	movl	-116(%ebp), %eax
	movl	tbuf2(,%eax,4), %eax
	imull	%eax, %edx
	movl	-68(%ebp), %eax
	addl	%edx, %eax
	movl	%eax, -124(%ebp)
	fildl	-124(%ebp)
	fdivrp	%st, %st(1)
	fstps	-148(%ebp)
	cvttss2si	-148(%ebp), %edx
	movl	-116(%ebp), %eax
	addl	$1, %eax
	movl	tbuf2(,%eax,4), %eax
	addl	$3, %eax
	movl	%edx, 4(%esp)
	movl	%eax, (%esp)
	call	_ZL6addusbPcl
	jmp	.L523
.L614:
	nop
.L523:
	cmpl	$0, -116(%ebp)
	setg	%al
	testb	%al, %al
	jne	.L530
	jmp	.L499
.L607:
	nop
	jmp	.L499
.L613:
	nop
.L499:
	movl	-84(%ebp), %eax
	addl	%eax, -104(%ebp)
.L497:
	movl	-104(%ebp), %eax
	cmpl	-76(%ebp), %eax
	setne	%al
	testb	%al, %al
	jne	.L531
	subl	$2, -84(%ebp)
	negl	-76(%ebp)
.L496:
	cmpl	$-1, -84(%ebp)
	setge	%al
	testb	%al, %al
	jne	.L532
	addl	$1, -100(%ebp)
.L493:
	movl	-100(%ebp), %eax
	cmpl	20(%ebp), %eax
	setl	%al
	testb	%al, %al
	jne	.L533
	subl	$1, -112(%ebp)
.L492:
	movl	-112(%ebp), %eax
	notl	%eax
	shrl	$31, %eax
	testb	%al, %al
	jne	.L534
	movl	$-1, 8(%esp)
	movl	$8192, 4(%esp)
	movl	$_ZL4bbuf, (%esp)
	call	_ZL8clearbufPvll
	movl	$1, -80(%ebp)
	movl	20(%ebp), %eax
	addl	$1, %eax
	movl	%eax, -72(%ebp)
	jmp	.L535
.L564:
	movl	-80(%ebp), %eax
	sarl	%eax
	movl	%eax, -100(%ebp)
	jmp	.L536
.L563:
	movl	$1, -84(%ebp)
	movl	20(%ebp), %eax
	addl	$1, %eax
	movl	%eax, -76(%ebp)
	jmp	.L537
.L562:
	movl	-84(%ebp), %eax
	sarl	%eax
	movl	%eax, -104(%ebp)
	jmp	.L538
.L561:
	movl	-104(%ebp), %eax
	movl	-60(%ebp), %edx
	addl	%edx, %eax
	movl	%eax, -92(%ebp)
	movl	-100(%ebp), %eax
	movl	-56(%ebp), %edx
	addl	%edx, %eax
	movl	%eax, -88(%ebp)
	movl	-88(%ebp), %eax
	movl	-92(%ebp), %edx
	orl	%edx, %eax
	cmpl	$1023, %eax
	ja	.L615
.L539:
	movl	-100(%ebp), %eax
	sarl	$31, %eax
	movl	%eax, %edx
	xorl	-100(%ebp), %edx
	subl	%eax, %edx
	movl	-104(%ebp), %eax
	movl	%eax, %ecx
	sarl	$31, %ecx
	movl	%ecx, %eax
	xorl	-104(%ebp), %eax
	subl	%ecx, %eax
	cmpl	%eax, %edx
	cmovge	%edx, %eax
	movl	%eax, -108(%ebp)
	movl	-88(%ebp), %eax
	movl	%eax, %edx
	sall	$10, %edx
	movl	-92(%ebp), %eax
	addl	%edx, %eax
	movl	sptr(,%eax,4), %eax
	movl	%eax, -64(%ebp)
	movl	-104(%ebp), %eax
	movl	%eax, %edx
	imull	-104(%ebp), %edx
	movl	-100(%ebp), %eax
	imull	-100(%ebp), %eax
	addl	%edx, %eax
	movl	%eax, -68(%ebp)
.L560:
	movl	-64(%ebp), %eax
	addl	$1, %eax
	movzbl	(%eax), %eax
	movsbl	%al, %eax
	movl	%eax, -96(%ebp)
	jmp	.L541
.L549:
	movl	-52(%ebp), %eax
	movl	-96(%ebp), %edx
	movl	%edx, %ecx
	subl	%eax, %ecx
	movl	%ecx, %eax
	cmpl	-108(%ebp), %eax
	jl	.L616
.L542:
	movl	-52(%ebp), %eax
	movl	-96(%ebp), %edx
	movl	%edx, %ebx
	subl	%eax, %ebx
	movl	%ebx, %eax
	cmpl	20(%ebp), %eax
	jge	.L617
.L544:
	movl	-52(%ebp), %eax
	movl	-96(%ebp), %edx
	movl	%edx, %ecx
	subl	%eax, %ecx
	movl	%ecx, %eax
	movl	%eax, 8(%esp)
	movl	-100(%ebp), %eax
	movl	%eax, 4(%esp)
	movl	-104(%ebp), %eax
	movl	%eax, (%esp)
	call	_ZL6docubelll
	testl	%eax, %eax
	je	.L545
	movl	-52(%ebp), %eax
	movl	-96(%ebp), %edx
	movl	%edx, %ebx
	subl	%eax, %ebx
	movl	%ebx, %eax
	cmpl	-108(%ebp), %eax
	jne	.L546
.L545:
	movl	$1, %eax
	jmp	.L547
.L546:
	movl	$0, %eax
.L547:
	testb	%al, %al
	jne	.L618
.L548:
	leal	-36(%ebp), %eax
	movl	%eax, 12(%esp)
	movl	-96(%ebp), %eax
	movl	%eax, 8(%esp)
	movl	-88(%ebp), %eax
	movl	%eax, 4(%esp)
	movl	-92(%ebp), %eax
	movl	%eax, (%esp)
	call	_Z7estnormlllP7point3d
	flds	-36(%ebp)
	fildl	-104(%ebp)
	fmulp	%st, %st(1)
	flds	-32(%ebp)
	fildl	-100(%ebp)
	fmulp	%st, %st(1)
	faddp	%st, %st(1)
	flds	-28(%ebp)
	movl	-52(%ebp), %eax
	movl	-96(%ebp), %edx
	movl	%edx, %ecx
	subl	%eax, %ecx
	movl	%ecx, %eax
	movl	%eax, -124(%ebp)
	fildl	-124(%ebp)
	fmulp	%st, %st(1)
	faddp	%st, %st(1)
	fstps	-120(%ebp)
	leal	-120(%ebp), %eax
	movl	(%eax), %eax
	testl	%eax, %eax
	jle	.L543
	flds	-120(%ebp)
	fmuls	-48(%ebp)
	movl	-52(%ebp), %eax
	movl	-96(%ebp), %edx
	movl	%edx, %ecx
	subl	%eax, %ecx
	movl	-52(%ebp), %eax
	movl	-96(%ebp), %edx
	movl	%edx, %ebx
	subl	%eax, %ebx
	movl	%ebx, %eax
	movl	%ecx, %edx
	imull	%eax, %edx
	movl	-68(%ebp), %eax
	addl	%edx, %eax
	movl	%eax, -124(%ebp)
	fildl	-124(%ebp)
	fdivrp	%st, %st(1)
	fstps	-152(%ebp)
	cvttss2si	-152(%ebp), %eax
	movl	-64(%ebp), %edx
	addl	$1, %edx
	movzbl	(%edx), %edx
	movsbl	%dl, %edx
	movl	-96(%ebp), %ecx
	movl	%ecx, %ebx
	subl	%edx, %ebx
	movl	%ebx, %edx
	sall	$2, %edx
	leal	7(%edx), %ecx
	movl	-64(%ebp), %edx
	addl	%ecx, %edx
	movl	%eax, 4(%esp)
	movl	%edx, (%esp)
	call	_ZL6addusbPcl
	jmp	.L543
.L616:
	nop
	jmp	.L543
.L618:
	nop
.L543:
	addl	$1, -96(%ebp)
.L541:
	movl	-64(%ebp), %eax
	addl	$2, %eax
	movzbl	(%eax), %eax
	movsbl	%al, %eax
	cmpl	-96(%ebp), %eax
	setge	%al
	testb	%al, %al
	jne	.L549
	movl	-64(%ebp), %eax
	movzbl	(%eax), %eax
	testb	%al, %al
	je	.L619
.L550:
	movl	-64(%ebp), %eax
	addl	$2, %eax
	movzbl	(%eax), %eax
	movsbl	%al, %edx
	movl	-64(%ebp), %eax
	addl	$1, %eax
	movzbl	(%eax), %eax
	movsbl	%al, %eax
	subl	%eax, %edx
	movl	-64(%ebp), %eax
	movzbl	(%eax), %eax
	movsbl	%al, %eax
	movl	%edx, %ecx
	subl	%eax, %ecx
	movl	%ecx, %eax
	addl	$2, %eax
	movl	%eax, -44(%ebp)
	movl	-64(%ebp), %eax
	movzbl	(%eax), %eax
	movsbl	%al, %eax
	sall	$2, %eax
	addl	%eax, -64(%ebp)
	movl	-64(%ebp), %eax
	addl	$3, %eax
	movzbl	(%eax), %eax
	movsbl	%al, %edx
	movl	-44(%ebp), %eax
	addl	%edx, %eax
	movl	%eax, -96(%ebp)
	jmp	.L551
.L559:
	movl	-52(%ebp), %eax
	movl	-96(%ebp), %edx
	movl	%edx, %ebx
	subl	%eax, %ebx
	movl	%ebx, %eax
	cmpl	-108(%ebp), %eax
	jl	.L620
.L552:
	movl	-52(%ebp), %eax
	movl	-96(%ebp), %edx
	movl	%edx, %ecx
	subl	%eax, %ecx
	movl	%ecx, %eax
	cmpl	20(%ebp), %eax
	jge	.L621
.L554:
	movl	-52(%ebp), %eax
	movl	-96(%ebp), %edx
	movl	%edx, %ebx
	subl	%eax, %ebx
	movl	%ebx, %eax
	movl	%eax, 8(%esp)
	movl	-100(%ebp), %eax
	movl	%eax, 4(%esp)
	movl	-104(%ebp), %eax
	movl	%eax, (%esp)
	call	_ZL6docubelll
	testl	%eax, %eax
	je	.L555
	movl	-52(%ebp), %eax
	movl	-96(%ebp), %edx
	movl	%edx, %ecx
	subl	%eax, %ecx
	movl	%ecx, %eax
	cmpl	-108(%ebp), %eax
	jg	.L556
.L555:
	movl	$1, %eax
	jmp	.L557
.L556:
	movl	$0, %eax
.L557:
	testb	%al, %al
	jne	.L622
.L558:
	leal	-36(%ebp), %eax
	movl	%eax, 12(%esp)
	movl	-96(%ebp), %eax
	movl	%eax, 8(%esp)
	movl	-88(%ebp), %eax
	movl	%eax, 4(%esp)
	movl	-92(%ebp), %eax
	movl	%eax, (%esp)
	call	_Z7estnormlllP7point3d
	flds	-36(%ebp)
	fildl	-104(%ebp)
	fmulp	%st, %st(1)
	flds	-32(%ebp)
	fildl	-100(%ebp)
	fmulp	%st, %st(1)
	faddp	%st, %st(1)
	flds	-28(%ebp)
	movl	-52(%ebp), %eax
	movl	-96(%ebp), %edx
	movl	%edx, %ebx
	subl	%eax, %ebx
	movl	%ebx, %eax
	movl	%eax, -124(%ebp)
	fildl	-124(%ebp)
	fmulp	%st, %st(1)
	faddp	%st, %st(1)
	fstps	-120(%ebp)
	leal	-120(%ebp), %eax
	movl	(%eax), %eax
	testl	%eax, %eax
	jle	.L553
	flds	-120(%ebp)
	fmuls	-48(%ebp)
	movl	-52(%ebp), %eax
	movl	-96(%ebp), %edx
	movl	%edx, %ecx
	subl	%eax, %ecx
	movl	-52(%ebp), %eax
	movl	-96(%ebp), %edx
	movl	%edx, %ebx
	subl	%eax, %ebx
	movl	%ebx, %eax
	movl	%ecx, %edx
	imull	%eax, %edx
	movl	-68(%ebp), %eax
	addl	%edx, %eax
	movl	%eax, -124(%ebp)
	fildl	-124(%ebp)
	fdivrp	%st, %st(1)
	fstps	-156(%ebp)
	cvttss2si	-156(%ebp), %eax
	movl	-64(%ebp), %edx
	addl	$3, %edx
	movzbl	(%edx), %edx
	movsbl	%dl, %edx
	movl	-96(%ebp), %ecx
	movl	%ecx, %ebx
	subl	%edx, %ebx
	movl	%ebx, %edx
	sall	$2, %edx
	leal	3(%edx), %ecx
	movl	-64(%ebp), %edx
	addl	%ecx, %edx
	movl	%eax, 4(%esp)
	movl	%edx, (%esp)
	call	_ZL6addusbPcl
	jmp	.L553
.L620:
	nop
	jmp	.L553
.L622:
	nop
.L553:
	addl	$1, -96(%ebp)
.L551:
	movl	-64(%ebp), %eax
	addl	$3, %eax
	movzbl	(%eax), %eax
	movsbl	%al, %eax
	cmpl	-96(%ebp), %eax
	setg	%al
	testb	%al, %al
	jne	.L559
	jmp	.L560
.L615:
	nop
	jmp	.L540
.L617:
	nop
	jmp	.L540
.L619:
	nop
	jmp	.L540
.L621:
	nop
.L540:
	movl	-84(%ebp), %eax
	addl	%eax, -104(%ebp)
.L538:
	movl	-104(%ebp), %eax
	cmpl	-76(%ebp), %eax
	setne	%al
	testb	%al, %al
	jne	.L561
	subl	$2, -84(%ebp)
	negl	-76(%ebp)
.L537:
	cmpl	$-1, -84(%ebp)
	setge	%al
	testb	%al, %al
	jne	.L562
	movl	-80(%ebp), %eax
	addl	%eax, -100(%ebp)
.L536:
	movl	-100(%ebp), %eax
	cmpl	-72(%ebp), %eax
	setne	%al
	testb	%al, %al
	jne	.L563
	subl	$2, -80(%ebp)
	negl	-72(%ebp)
.L535:
	cmpl	$-1, -80(%ebp)
	setge	%al
	testb	%al, %al
	jne	.L564
	movl	$-1, 8(%esp)
	movl	$8192, 4(%esp)
	movl	$_ZL4bbuf, (%esp)
	call	_ZL8clearbufPvll
	movl	$1, -80(%ebp)
	movl	20(%ebp), %eax
	addl	$1, %eax
	movl	%eax, -72(%ebp)
	jmp	.L565
.L594:
	movl	-80(%ebp), %eax
	sarl	%eax
	movl	%eax, -100(%ebp)
	jmp	.L566
.L593:
	movl	$1, -84(%ebp)
	movl	20(%ebp), %eax
	addl	$1, %eax
	movl	%eax, -76(%ebp)
	jmp	.L567
.L592:
	movl	-84(%ebp), %eax
	sarl	%eax
	movl	%eax, -104(%ebp)
	jmp	.L568
.L591:
	movl	-104(%ebp), %eax
	movl	-60(%ebp), %edx
	addl	%edx, %eax
	movl	%eax, -92(%ebp)
	movl	-100(%ebp), %eax
	movl	-56(%ebp), %edx
	addl	%edx, %eax
	movl	%eax, -88(%ebp)
	movl	-88(%ebp), %eax
	movl	-92(%ebp), %edx
	orl	%edx, %eax
	cmpl	$1023, %eax
	ja	.L623
.L569:
	movl	-100(%ebp), %eax
	sarl	$31, %eax
	movl	%eax, %edx
	xorl	-100(%ebp), %edx
	subl	%eax, %edx
	movl	-104(%ebp), %eax
	movl	%eax, %ecx
	sarl	$31, %ecx
	movl	%ecx, %eax
	xorl	-104(%ebp), %eax
	subl	%ecx, %eax
	cmpl	%eax, %edx
	cmovge	%edx, %eax
	movl	%eax, -108(%ebp)
	movl	-84(%ebp), %eax
	movl	-104(%ebp), %edx
	addl	%edx, %eax
	cmpl	-76(%ebp), %eax
	je	.L571
	movl	-80(%ebp), %eax
	movl	-100(%ebp), %edx
	addl	%edx, %eax
	cmpl	-72(%ebp), %eax
	je	.L571
	movl	$1, %eax
	jmp	.L572
.L571:
	movl	$0, %eax
.L572:
	movzbl	%al, %eax
	movl	%eax, -40(%ebp)
	movl	-88(%ebp), %eax
	movl	%eax, %edx
	sall	$10, %edx
	movl	-92(%ebp), %eax
	addl	%edx, %eax
	movl	sptr(,%eax,4), %eax
	movl	%eax, -64(%ebp)
	movl	$0, -116(%ebp)
	movl	-104(%ebp), %eax
	movl	%eax, %edx
	imull	-104(%ebp), %edx
	movl	-100(%ebp), %eax
	imull	-100(%ebp), %eax
	addl	%edx, %eax
	movl	%eax, -68(%ebp)
.L584:
	movl	-64(%ebp), %eax
	addl	$1, %eax
	movzbl	(%eax), %eax
	movsbl	%al, %eax
	movl	%eax, -96(%ebp)
	jmp	.L573
.L577:
	movl	-96(%ebp), %eax
	movl	-52(%ebp), %edx
	movl	%edx, %ecx
	subl	%eax, %ecx
	movl	%ecx, %eax
	cmpl	20(%ebp), %eax
	jge	.L624
.L574:
	movl	-96(%ebp), %eax
	movl	-52(%ebp), %edx
	movl	%edx, %ebx
	subl	%eax, %ebx
	movl	%ebx, %eax
	cmpl	-108(%ebp), %eax
	jl	.L625
.L576:
	movl	-96(%ebp), %eax
	movl	-52(%ebp), %edx
	subl	%eax, %edx
	movl	-116(%ebp), %eax
	movl	%edx, tbuf2(,%eax,4)
	movl	-116(%ebp), %eax
	leal	1(%eax), %edx
	movl	-64(%ebp), %eax
	addl	$1, %eax
	movzbl	(%eax), %eax
	movsbl	%al, %eax
	movl	-96(%ebp), %ecx
	movl	%ecx, %ebx
	subl	%eax, %ebx
	movl	%ebx, %eax
	addl	$1, %eax
	sall	$2, %eax
	movl	%eax, %ecx
	movl	-64(%ebp), %eax
	addl	%ecx, %eax
	movl	%eax, tbuf2(,%edx,4)
	addl	$2, -116(%ebp)
	jmp	.L575
.L624:
	nop
.L575:
	addl	$1, -96(%ebp)
.L573:
	movl	-64(%ebp), %eax
	addl	$2, %eax
	movzbl	(%eax), %eax
	movsbl	%al, %eax
	cmpl	-96(%ebp), %eax
	setge	%al
	testb	%al, %al
	jne	.L577
	movl	-64(%ebp), %eax
	movzbl	(%eax), %eax
	testb	%al, %al
	je	.L626
.L578:
	movl	-64(%ebp), %eax
	addl	$2, %eax
	movzbl	(%eax), %eax
	movsbl	%al, %edx
	movl	-64(%ebp), %eax
	addl	$1, %eax
	movzbl	(%eax), %eax
	movsbl	%al, %eax
	subl	%eax, %edx
	movl	-64(%ebp), %eax
	movzbl	(%eax), %eax
	movsbl	%al, %eax
	movl	%edx, %ecx
	subl	%eax, %ecx
	movl	%ecx, %eax
	addl	$2, %eax
	movl	%eax, -44(%ebp)
	movl	-64(%ebp), %eax
	movzbl	(%eax), %eax
	movsbl	%al, %eax
	sall	$2, %eax
	addl	%eax, -64(%ebp)
	movl	-64(%ebp), %eax
	addl	$3, %eax
	movzbl	(%eax), %eax
	movsbl	%al, %edx
	movl	-44(%ebp), %eax
	addl	%edx, %eax
	movl	%eax, -96(%ebp)
	jmp	.L579
.L583:
	movl	-96(%ebp), %eax
	movl	-52(%ebp), %edx
	movl	%edx, %ebx
	subl	%eax, %ebx
	movl	%ebx, %eax
	cmpl	20(%ebp), %eax
	jge	.L627
.L580:
	movl	-96(%ebp), %eax
	movl	-52(%ebp), %edx
	movl	%edx, %ecx
	subl	%eax, %ecx
	movl	%ecx, %eax
	cmpl	-108(%ebp), %eax
	jl	.L628
.L582:
	movl	-96(%ebp), %eax
	movl	-52(%ebp), %edx
	subl	%eax, %edx
	movl	-116(%ebp), %eax
	movl	%edx, tbuf2(,%eax,4)
	movl	-116(%ebp), %eax
	leal	1(%eax), %edx
	movl	-64(%ebp), %eax
	addl	$3, %eax
	movzbl	(%eax), %eax
	movsbl	%al, %eax
	movl	-96(%ebp), %ecx
	movl	%ecx, %ebx
	subl	%eax, %ebx
	movl	%ebx, %eax
	sall	$2, %eax
	movl	%eax, %ecx
	movl	-64(%ebp), %eax
	addl	%ecx, %eax
	movl	%eax, tbuf2(,%edx,4)
	addl	$2, -116(%ebp)
	jmp	.L581
.L627:
	nop
.L581:
	addl	$1, -96(%ebp)
.L579:
	movl	-64(%ebp), %eax
	addl	$3, %eax
	movzbl	(%eax), %eax
	movsbl	%al, %eax
	cmpl	-96(%ebp), %eax
	setg	%al
	testb	%al, %al
	jne	.L583
	jmp	.L584
.L623:
	nop
	jmp	.L570
.L625:
	nop
	jmp	.L570
.L626:
	nop
	jmp	.L570
.L628:
	nop
.L570:
	jmp	.L585
.L590:
	subl	$2, -116(%ebp)
	movl	-116(%ebp), %eax
	movl	tbuf2(,%eax,4), %eax
	movl	%eax, 8(%esp)
	movl	-100(%ebp), %eax
	movl	%eax, 4(%esp)
	movl	-104(%ebp), %eax
	movl	%eax, (%esp)
	call	_ZL6docubelll
	testl	%eax, %eax
	je	.L586
	movl	-116(%ebp), %eax
	movl	tbuf2(,%eax,4), %eax
	cmpl	-108(%ebp), %eax
	jg	.L587
.L586:
	movl	$1, %eax
	jmp	.L588
.L587:
	movl	$0, %eax
.L588:
	testb	%al, %al
	jne	.L629
.L589:
	movl	-116(%ebp), %eax
	movl	tbuf2(,%eax,4), %eax
	movl	-52(%ebp), %edx
	subl	%eax, %edx
	leal	-36(%ebp), %eax
	movl	%eax, 12(%esp)
	movl	%edx, 8(%esp)
	movl	-88(%ebp), %eax
	movl	%eax, 4(%esp)
	movl	-92(%ebp), %eax
	movl	%eax, (%esp)
	call	_Z7estnormlllP7point3d
	flds	-36(%ebp)
	fildl	-104(%ebp)
	fmulp	%st, %st(1)
	flds	-32(%ebp)
	fildl	-100(%ebp)
	fmulp	%st, %st(1)
	faddp	%st, %st(1)
	flds	-28(%ebp)
	movl	-116(%ebp), %eax
	movl	tbuf2(,%eax,4), %eax
	movl	%eax, -124(%ebp)
	fildl	-124(%ebp)
	fmulp	%st, %st(1)
	fsubrp	%st, %st(1)
	fstps	-120(%ebp)
	leal	-120(%ebp), %eax
	movl	(%eax), %eax
	testl	%eax, %eax
	jle	.L585
	flds	-120(%ebp)
	fmuls	-48(%ebp)
	movl	-116(%ebp), %eax
	movl	tbuf2(,%eax,4), %edx
	movl	-116(%ebp), %eax
	movl	tbuf2(,%eax,4), %eax
	imull	%eax, %edx
	movl	-68(%ebp), %eax
	addl	%edx, %eax
	movl	%eax, -124(%ebp)
	fildl	-124(%ebp)
	fdivrp	%st, %st(1)
	fstps	-160(%ebp)
	cvttss2si	-160(%ebp), %edx
	movl	-116(%ebp), %eax
	addl	$1, %eax
	movl	tbuf2(,%eax,4), %eax
	addl	$3, %eax
	movl	%edx, 4(%esp)
	movl	%eax, (%esp)
	call	_ZL6addusbPcl
	jmp	.L585
.L629:
	nop
.L585:
	cmpl	$0, -116(%ebp)
	setg	%al
	testb	%al, %al
	jne	.L590
	movl	-84(%ebp), %eax
	addl	%eax, -104(%ebp)
.L568:
	movl	-104(%ebp), %eax
	cmpl	-76(%ebp), %eax
	setne	%al
	testb	%al, %al
	jne	.L591
	subl	$2, -84(%ebp)
	negl	-76(%ebp)
.L567:
	cmpl	$-1, -84(%ebp)
	setge	%al
	testb	%al, %al
	jne	.L592
	movl	-80(%ebp), %eax
	addl	%eax, -100(%ebp)
.L566:
	movl	-100(%ebp), %eax
	cmpl	-72(%ebp), %eax
	setne	%al
	testb	%al, %al
	jne	.L593
	subl	$2, -80(%ebp)
	negl	-72(%ebp)
.L565:
	cmpl	$-1, -80(%ebp)
	setge	%al
	testb	%al, %al
	jne	.L594
	movl	vx5+104, %edi
	movl	vx5+100, %esi
	movl	vx5+96, %ebx
	movl	vx5+92, %ecx
	movl	vx5+88, %edx
	movl	vx5+84, %eax
	movl	$0, 24(%esp)
	movl	%edi, 20(%esp)
	movl	%esi, 16(%esp)
	movl	%ebx, 12(%esp)
	movl	%ecx, 8(%esp)
	movl	%edx, 4(%esp)
	movl	%eax, (%esp)
.LEHB4:
	call	_Z10updatebboxlllllll
.LEHE4:
	jmp	.L598
.L597:
	movl	%eax, (%esp)
.LEHB5:
	call	_Unwind_Resume
.LEHE5:
.L598:
	nop
.L455:
	addl	$188, %esp
	popl	%ebx
	.cfi_restore 3
	popl	%esi
	.cfi_restore 6
	popl	%edi
	.cfi_restore 7
	popl	%ebp
	.cfi_restore 5
	.cfi_def_cfa 4, 4
	ret
	.cfi_endproc
.LFE58:
	.section	.gcc_except_table
.LLSDA58:
	.byte	0xff
	.byte	0xff
	.byte	0x1
	.uleb128 .LLSDACSE58-.LLSDACSB58
.LLSDACSB58:
	.uleb128 .LEHB4-.LFB58
	.uleb128 .LEHE4-.LEHB4
	.uleb128 .L597-.LFB58
	.uleb128 0
	.uleb128 .LEHB5-.LFB58
	.uleb128 .LEHE5-.LEHB5
	.uleb128 0
	.uleb128 0
.LLSDACSE58:
	.text
	.size	_Z12setnormflashfffll, .-_Z12setnormflashfffll
	.globl	_Z5hlineffffPlS_
	.type	_Z5hlineffffPlS_, @function
_Z5hlineffffPlS_:
.LFB59:
	.cfi_startproc
	pushl	%ebp
	.cfi_def_cfa_offset 8
	.cfi_offset 5, -8
	movl	%esp, %ebp
	.cfi_def_cfa_register 5
	subl	$72, %esp
	flds	20(%ebp)
	fsubs	12(%ebp)
	flds	_ZL3grd
	fmulp	%st, %st(1)
	fstps	-12(%ebp)
	flds	_ZL3wy0
	flds	12(%ebp)
	fxch	%st(1)
	fucomip	%st(1), %st
	fstp	%st(0)
	jbe	.L647
.L643:
	flds	_ZL3wy0
	fsubs	12(%ebp)
	fdivs	-12(%ebp)
	fadds	8(%ebp)
	movl	24(%ebp), %eax
	movl	%eax, 4(%esp)
	fstps	(%esp)
	call	_ZL4ftolfPl
	jmp	.L633
.L647:
	flds	_ZL3wy1
	flds	12(%ebp)
	fucomip	%st(1), %st
	fstp	%st(0)
	jbe	.L648
.L644:
	flds	_ZL3wy1
	fsubs	12(%ebp)
	fdivs	-12(%ebp)
	fadds	8(%ebp)
	movl	24(%ebp), %eax
	movl	%eax, 4(%esp)
	fstps	(%esp)
	call	_ZL4ftolfPl
	jmp	.L633
.L648:
	movl	24(%ebp), %eax
	movl	%eax, 4(%esp)
	movl	8(%ebp), %eax
	movl	%eax, (%esp)
	call	_ZL4ftolfPl
.L633:
	flds	_ZL3wy0
	flds	20(%ebp)
	fxch	%st(1)
	fucomip	%st(1), %st
	fstp	%st(0)
	jbe	.L649
.L645:
	flds	_ZL3wy0
	fsubs	12(%ebp)
	fdivs	-12(%ebp)
	fadds	8(%ebp)
	movl	28(%ebp), %eax
	movl	%eax, 4(%esp)
	fstps	(%esp)
	call	_ZL4ftolfPl
	jmp	.L638
.L649:
	flds	_ZL3wy1
	flds	20(%ebp)
	fucomip	%st(1), %st
	fstp	%st(0)
	jbe	.L650
.L646:
	flds	_ZL3wy1
	fsubs	12(%ebp)
	fdivs	-12(%ebp)
	fadds	8(%ebp)
	movl	28(%ebp), %eax
	movl	%eax, 4(%esp)
	fstps	(%esp)
	call	_ZL4ftolfPl
	jmp	.L638
.L650:
	movl	28(%ebp), %eax
	movl	%eax, 4(%esp)
	movl	16(%ebp), %eax
	movl	%eax, (%esp)
	call	_ZL4ftolfPl
.L638:
	movl	24(%ebp), %eax
	movl	(%eax), %edx
	movl	_ZL4iwx0, %eax
	cmpl	%eax, %edx
	jge	.L641
	movl	_ZL4iwx0, %edx
	movl	24(%ebp), %eax
	movl	%edx, (%eax)
.L641:
	movl	24(%ebp), %eax
	movl	(%eax), %edx
	movl	_ZL4iwx1, %eax
	cmpl	%eax, %edx
	jle	.L642
	movl	_ZL4iwx1, %edx
	movl	24(%ebp), %eax
	movl	%edx, (%eax)
.L642:
	movl	28(%ebp), %eax
	movl	(%eax), %eax
	movl	%eax, -28(%ebp)
	fildl	-28(%ebp)
	fsubs	16(%ebp)
	fmuls	-12(%ebp)
	fadds	20(%ebp)
	movl	28(%ebp), %eax
	movl	(%eax), %eax
	movl	%eax, -28(%ebp)
	fildl	-28(%ebp)
	movl	24(%ebp), %eax
	movl	(%eax), %eax
	movl	%eax, -28(%ebp)
	fildl	-28(%ebp)
	fsubs	16(%ebp)
	fmuls	-12(%ebp)
	fadds	20(%ebp)
	movl	24(%ebp), %eax
	movl	(%eax), %eax
	movl	%eax, -28(%ebp)
	fildl	-28(%ebp)
	fxch	%st(3)
	movl	28(%ebp), %eax
	movl	(%eax), %edx
	movl	24(%ebp), %eax
	movl	(%eax), %eax
	movl	%edx, %ecx
	subl	%eax, %ecx
	movl	%ecx, %eax
	movl	%eax, %edx
	sarl	$31, %edx
	xorl	%edx, %eax
	subl	%edx, %eax
	fstps	16(%esp)
	fxch	%st(1)
	fstps	12(%esp)
	fstps	8(%esp)
	fstps	4(%esp)
	movl	%eax, (%esp)
	call	_Z5glinelffff
	leave
	.cfi_restore 5
	.cfi_def_cfa 4, 4
	ret
	.cfi_endproc
.LFE59:
	.size	_Z5hlineffffPlS_, .-_Z5hlineffffPlS_
	.globl	_Z5vlineffffPlS_
	.type	_Z5vlineffffPlS_, @function
_Z5vlineffffPlS_:
.LFB60:
	.cfi_startproc
	pushl	%ebp
	.cfi_def_cfa_offset 8
	.cfi_offset 5, -8
	movl	%esp, %ebp
	.cfi_def_cfa_register 5
	subl	$72, %esp
	flds	16(%ebp)
	fsubs	8(%ebp)
	flds	_ZL3grd
	fmulp	%st, %st(1)
	fstps	-12(%ebp)
	flds	_ZL3wx0
	flds	8(%ebp)
	fxch	%st(1)
	fucomip	%st(1), %st
	fstp	%st(0)
	jbe	.L668
.L664:
	flds	_ZL3wx0
	fsubs	8(%ebp)
	fdivs	-12(%ebp)
	fadds	12(%ebp)
	movl	24(%ebp), %eax
	movl	%eax, 4(%esp)
	fstps	(%esp)
	call	_ZL4ftolfPl
	jmp	.L654
.L668:
	flds	_ZL3wx1
	flds	8(%ebp)
	fucomip	%st(1), %st
	fstp	%st(0)
	jbe	.L669
.L665:
	flds	_ZL3wx1
	fsubs	8(%ebp)
	fdivs	-12(%ebp)
	fadds	12(%ebp)
	movl	24(%ebp), %eax
	movl	%eax, 4(%esp)
	fstps	(%esp)
	call	_ZL4ftolfPl
	jmp	.L654
.L669:
	movl	24(%ebp), %eax
	movl	%eax, 4(%esp)
	movl	12(%ebp), %eax
	movl	%eax, (%esp)
	call	_ZL4ftolfPl
.L654:
	flds	_ZL3wx0
	flds	16(%ebp)
	fxch	%st(1)
	fucomip	%st(1), %st
	fstp	%st(0)
	jbe	.L670
.L666:
	flds	_ZL3wx0
	fsubs	8(%ebp)
	fdivs	-12(%ebp)
	fadds	12(%ebp)
	movl	28(%ebp), %eax
	movl	%eax, 4(%esp)
	fstps	(%esp)
	call	_ZL4ftolfPl
	jmp	.L659
.L670:
	flds	_ZL3wx1
	flds	16(%ebp)
	fucomip	%st(1), %st
	fstp	%st(0)
	jbe	.L671
.L667:
	flds	_ZL3wx1
	fsubs	8(%ebp)
	fdivs	-12(%ebp)
	fadds	12(%ebp)
	movl	28(%ebp), %eax
	movl	%eax, 4(%esp)
	fstps	(%esp)
	call	_ZL4ftolfPl
	jmp	.L659
.L671:
	movl	28(%ebp), %eax
	movl	%eax, 4(%esp)
	movl	20(%ebp), %eax
	movl	%eax, (%esp)
	call	_ZL4ftolfPl
.L659:
	movl	24(%ebp), %eax
	movl	(%eax), %edx
	movl	_ZL4iwy0, %eax
	cmpl	%eax, %edx
	jge	.L662
	movl	_ZL4iwy0, %edx
	movl	24(%ebp), %eax
	movl	%edx, (%eax)
.L662:
	movl	24(%ebp), %eax
	movl	(%eax), %edx
	movl	_ZL4iwy1, %eax
	cmpl	%eax, %edx
	jle	.L663
	movl	_ZL4iwy1, %edx
	movl	24(%ebp), %eax
	movl	%edx, (%eax)
.L663:
	movl	28(%ebp), %eax
	movl	(%eax), %eax
	movl	%eax, -28(%ebp)
	fildl	-28(%ebp)
	movl	28(%ebp), %eax
	movl	(%eax), %eax
	movl	%eax, -28(%ebp)
	fildl	-28(%ebp)
	fsubs	20(%ebp)
	fmuls	-12(%ebp)
	fadds	16(%ebp)
	movl	24(%ebp), %eax
	movl	(%eax), %eax
	movl	%eax, -28(%ebp)
	fildl	-28(%ebp)
	movl	24(%ebp), %eax
	movl	(%eax), %eax
	movl	%eax, -28(%ebp)
	fildl	-28(%ebp)
	fsubs	20(%ebp)
	fmuls	-12(%ebp)
	fadds	16(%ebp)
	fxch	%st(3)
	movl	28(%ebp), %eax
	movl	(%eax), %edx
	movl	24(%ebp), %eax
	movl	(%eax), %eax
	movl	%edx, %ecx
	subl	%eax, %ecx
	movl	%ecx, %eax
	movl	%eax, %edx
	sarl	$31, %edx
	xorl	%edx, %eax
	subl	%edx, %eax
	fstps	16(%esp)
	fxch	%st(1)
	fstps	12(%esp)
	fstps	8(%esp)
	fstps	4(%esp)
	movl	%eax, (%esp)
	call	_Z5glinelffff
	leave
	.cfi_restore 5
	.cfi_def_cfa 4, 4
	ret
	.cfi_endproc
.LFE60:
	.size	_Z5vlineffffPlS_, .-_Z5vlineffffPlS_
	.local	_ZL8optistrx
	.comm	_ZL8optistrx,4,4
	.local	_ZL8optistry
	.comm	_ZL8optistry,4,4
	.local	_ZL8optiheix
	.comm	_ZL8optiheix,4,4
	.local	_ZL8optiheiy
	.comm	_ZL8optiheiy,4,4
	.local	_ZL8optiaddx
	.comm	_ZL8optiaddx,4,4
	.local	_ZL8optiaddy
	.comm	_ZL8optiaddy,4,4
	.local	foglut
	.comm	foglut,16384,32
	.local	_ZL6fogcol
	.comm	_ZL6fogcol,8,8
	.data
	.align 4
	.type	_ZL8ofogdist, @object
	.size	_ZL8ofogdist, 4
_ZL8ofogdist:
	.long	-1
	.globl	hrend
	.bss
	.align 4
	.type	hrend, @object
	.size	hrend, 4
hrend:
	.zero	4
	.globl	vrend
	.align 4
	.type	vrend, @object
	.size	vrend, 4
vrend:
	.zero	4
	.text
	.globl	_Z6hrendzllllll
	.type	_Z6hrendzllllll, @function
_Z6hrendzllllll:
.LFB61:
	.cfi_startproc
	pushl	%ebp
	.cfi_def_cfa_offset 8
	.cfi_offset 5, -8
	movl	%esp, %ebp
	.cfi_def_cfa_register 5
	pushl	%ebx
	subl	$52, %esp
	.cfi_offset 3, -12
	movl	12(%ebp), %eax
	movl	ylookup(,%eax,4), %eax
	movl	8(%ebp), %edx
	sall	$2, %edx
	addl	%eax, %edx
	movl	_ZL10frameplace, %eax
	addl	%edx, %eax
	movl	%eax, -24(%ebp)
	movl	12(%ebp), %eax
	movl	ylookup(,%eax,4), %eax
	movl	16(%ebp), %edx
	sall	$2, %edx
	addl	%eax, %edx
	movl	_ZL10frameplace, %eax
	addl	%edx, %eax
	movl	%eax, 16(%ebp)
	fildl	8(%ebp)
	flds	_ZL8optistrx
	fmulp	%st, %st(1)
	fildl	12(%ebp)
	flds	_ZL8optiheix
	fmulp	%st, %st(1)
	faddp	%st, %st(1)
	flds	_ZL8optiaddx
	faddp	%st, %st(1)
	fstps	-20(%ebp)
	fildl	8(%ebp)
	flds	_ZL8optistry
	fmulp	%st, %st(1)
	fildl	12(%ebp)
	flds	_ZL8optiheiy
	fmulp	%st, %st(1)
	faddp	%st, %st(1)
	flds	_ZL8optiaddy
	faddp	%st, %st(1)
	fstps	-16(%ebp)
	movl	zbufoff, %eax
	movl	%eax, -12(%ebp)
.L673:
	movl	-24(%ebp), %eax
	movl	20(%ebp), %edx
	sarl	$16, %edx
	movl	_ZL8angstart(,%edx,4), %edx
	movl	28(%ebp), %ecx
	sall	$3, %ecx
	addl	%ecx, %edx
	movl	(%edx), %edx
	movl	%edx, (%eax)
	movl	-12(%ebp), %eax
	movl	-24(%ebp), %edx
	addl	%edx, %eax
	movl	%eax, %ebx
	movl	20(%ebp), %eax
	sarl	$16, %eax
	movl	_ZL8angstart(,%eax,4), %eax
	movl	28(%ebp), %edx
	sall	$3, %edx
	addl	%edx, %eax
	movl	4(%eax), %eax
	movl	%eax, -32(%ebp)
	fildl	-32(%ebp)
	fstpl	-40(%ebp)
	flds	-20(%ebp)
	fmuls	-20(%ebp)
	flds	-16(%ebp)
	fmuls	-16(%ebp)
	faddp	%st, %st(1)
	fstpl	(%esp)
	call	sqrt
	fdivrl	-40(%ebp)
	fstps	-28(%ebp)
	flds	-28(%ebp)
	fstps	(%ebx)
	flds	_ZL8optistrx
	flds	-20(%ebp)
	faddp	%st, %st(1)
	fstps	-20(%ebp)
	flds	_ZL8optistry
	flds	-16(%ebp)
	faddp	%st, %st(1)
	fstps	-16(%ebp)
	movl	24(%ebp), %eax
	addl	%eax, 20(%ebp)
	addl	$4, -24(%ebp)
	movl	-24(%ebp), %eax
	cmpl	16(%ebp), %eax
	setne	%al
	testb	%al, %al
	jne	.L673
	addl	$52, %esp
	popl	%ebx
	.cfi_restore 3
	popl	%ebp
	.cfi_restore 5
	.cfi_def_cfa 4, 4
	ret
	.cfi_endproc
.LFE61:
	.size	_Z6hrendzllllll, .-_Z6hrendzllllll
	.globl	_Z6vrendzlllll
	.type	_Z6vrendzlllll, @function
_Z6vrendzlllll:
.LFB62:
	.cfi_startproc
	pushl	%ebp
	.cfi_def_cfa_offset 8
	.cfi_offset 5, -8
	movl	%esp, %ebp
	.cfi_def_cfa_register 5
	pushl	%ebx
	subl	$52, %esp
	.cfi_offset 3, -12
	movl	12(%ebp), %eax
	movl	ylookup(,%eax,4), %eax
	movl	8(%ebp), %edx
	sall	$2, %edx
	addl	%eax, %edx
	movl	_ZL10frameplace, %eax
	addl	%edx, %eax
	movl	%eax, -16(%ebp)
	movl	12(%ebp), %eax
	movl	ylookup(,%eax,4), %eax
	movl	16(%ebp), %edx
	sall	$2, %edx
	addl	%eax, %edx
	movl	_ZL10frameplace, %eax
	addl	%edx, %eax
	movl	%eax, 16(%ebp)
	fildl	8(%ebp)
	flds	_ZL8optistrx
	fmulp	%st, %st(1)
	fildl	12(%ebp)
	flds	_ZL8optiheix
	fmulp	%st, %st(1)
	faddp	%st, %st(1)
	flds	_ZL8optiaddx
	faddp	%st, %st(1)
	fstps	-24(%ebp)
	fildl	8(%ebp)
	flds	_ZL8optistry
	fmulp	%st, %st(1)
	fildl	12(%ebp)
	flds	_ZL8optiheiy
	fmulp	%st, %st(1)
	faddp	%st, %st(1)
	flds	_ZL8optiaddy
	faddp	%st, %st(1)
	fstps	-20(%ebp)
	movl	zbufoff, %eax
	movl	%eax, -12(%ebp)
	jmp	.L675
.L676:
	movl	-16(%ebp), %eax
	movl	_ZL6uurend, %edx
	movl	8(%ebp), %ecx
	sall	$2, %ecx
	addl	%ecx, %edx
	movl	(%edx), %edx
	sarl	$16, %edx
	movl	_ZL8angstart(,%edx,4), %edx
	movl	20(%ebp), %ecx
	sall	$3, %ecx
	addl	%ecx, %edx
	movl	(%edx), %edx
	movl	%edx, (%eax)
	movl	-12(%ebp), %eax
	movl	-16(%ebp), %edx
	addl	%edx, %eax
	movl	%eax, %ebx
	movl	_ZL6uurend, %eax
	movl	8(%ebp), %edx
	sall	$2, %edx
	addl	%edx, %eax
	movl	(%eax), %eax
	sarl	$16, %eax
	movl	_ZL8angstart(,%eax,4), %eax
	movl	20(%ebp), %edx
	sall	$3, %edx
	addl	%edx, %eax
	movl	4(%eax), %eax
	movl	%eax, -32(%ebp)
	fildl	-32(%ebp)
	fstpl	-40(%ebp)
	flds	-24(%ebp)
	fmuls	-24(%ebp)
	flds	-20(%ebp)
	fmuls	-20(%ebp)
	faddp	%st, %st(1)
	fstpl	(%esp)
	call	sqrt
	fdivrl	-40(%ebp)
	fstps	-28(%ebp)
	flds	-28(%ebp)
	fstps	(%ebx)
	flds	_ZL8optistrx
	flds	-24(%ebp)
	faddp	%st, %st(1)
	fstps	-24(%ebp)
	flds	_ZL8optistry
	flds	-20(%ebp)
	faddp	%st, %st(1)
	fstps	-20(%ebp)
	movl	_ZL6uurend, %eax
	movl	8(%ebp), %edx
	sall	$2, %edx
	addl	%edx, %eax
	movl	_ZL6uurend, %edx
	movl	8(%ebp), %ecx
	sall	$2, %ecx
	addl	%ecx, %edx
	movl	(%edx), %ecx
	movl	_ZL6uurend, %edx
	movl	8(%ebp), %ebx
	addl	$1024, %ebx
	sall	$2, %ebx
	addl	%ebx, %edx
	movl	(%edx), %edx
	addl	%ecx, %edx
	movl	%edx, (%eax)
	addl	$4, -16(%ebp)
	movl	24(%ebp), %eax
	addl	%eax, 20(%ebp)
	addl	$1, 8(%ebp)
.L675:
	movl	-16(%ebp), %eax
	cmpl	16(%ebp), %eax
	setl	%al
	testb	%al, %al
	jne	.L676
	addl	$52, %esp
	popl	%ebx
	.cfi_restore 3
	popl	%ebp
	.cfi_restore 5
	.cfi_def_cfa 4, 4
	ret
	.cfi_endproc
.LFE62:
	.size	_Z6vrendzlllll, .-_Z6vrendzlllll
	.globl	_Z9hrendzfogllllll
	.type	_Z9hrendzfogllllll, @function
_Z9hrendzfogllllll:
.LFB63:
	.cfi_startproc
	pushl	%ebp
	.cfi_def_cfa_offset 8
	.cfi_offset 5, -8
	movl	%esp, %ebp
	.cfi_def_cfa_register 5
	pushl	%esi
	pushl	%ebx
	subl	$64, %esp
	.cfi_offset 6, -12
	.cfi_offset 3, -16
	movl	12(%ebp), %eax
	movl	ylookup(,%eax,4), %eax
	movl	8(%ebp), %edx
	sall	$2, %edx
	addl	%eax, %edx
	movl	_ZL10frameplace, %eax
	addl	%edx, %eax
	movl	%eax, -32(%ebp)
	movl	12(%ebp), %eax
	movl	ylookup(,%eax,4), %eax
	movl	16(%ebp), %edx
	sall	$2, %edx
	addl	%eax, %edx
	movl	_ZL10frameplace, %eax
	addl	%edx, %eax
	movl	%eax, 16(%ebp)
	fildl	8(%ebp)
	flds	_ZL8optistrx
	fmulp	%st, %st(1)
	fildl	12(%ebp)
	flds	_ZL8optiheix
	fmulp	%st, %st(1)
	faddp	%st, %st(1)
	flds	_ZL8optiaddx
	faddp	%st, %st(1)
	fstps	-28(%ebp)
	fildl	8(%ebp)
	flds	_ZL8optistry
	fmulp	%st, %st(1)
	fildl	12(%ebp)
	flds	_ZL8optiheiy
	fmulp	%st, %st(1)
	faddp	%st, %st(1)
	flds	_ZL8optiaddy
	faddp	%st, %st(1)
	fstps	-24(%ebp)
	movl	zbufoff, %eax
	movl	%eax, -20(%ebp)
.L678:
	movl	20(%ebp), %eax
	sarl	$16, %eax
	movl	_ZL8angstart(,%eax,4), %eax
	movl	28(%ebp), %edx
	sall	$3, %edx
	addl	%edx, %eax
	movl	(%eax), %eax
	movl	%eax, -16(%ebp)
	movl	20(%ebp), %eax
	sarl	$16, %eax
	movl	_ZL8angstart(,%eax,4), %eax
	movl	28(%ebp), %edx
	sall	$3, %edx
	addl	%edx, %eax
	movl	4(%eax), %eax
	movl	%eax, -12(%ebp)
	movl	-12(%ebp), %eax
	sarl	$20, %eax
	movl	foglut+4(,%eax,8), %edx
	movl	foglut(,%eax,8), %eax
	andl	$32767, %eax
	movl	%eax, -12(%ebp)
	movl	-32(%ebp), %eax
	movl	vx5+19592, %edx
	movzbl	%dl, %ecx
	movl	-16(%ebp), %edx
	andl	$255, %edx
	movl	%ecx, %ebx
	subl	%edx, %ebx
	movl	%ebx, %edx
	imull	-12(%ebp), %edx
	movl	%edx, %ecx
	sarl	$15, %ecx
	movl	vx5+19592, %edx
	sarl	$8, %edx
	movzbl	%dl, %ebx
	movl	-16(%ebp), %edx
	sarl	$8, %edx
	andl	$255, %edx
	movl	%ebx, %esi
	subl	%edx, %esi
	movl	%esi, %edx
	imull	-12(%ebp), %edx
	sarl	$15, %edx
	sall	$8, %edx
	addl	%edx, %ecx
	movl	vx5+19592, %edx
	sarl	$16, %edx
	movzbl	%dl, %ebx
	movl	-16(%ebp), %edx
	sarl	$16, %edx
	andl	$255, %edx
	movl	%ebx, %esi
	subl	%edx, %esi
	movl	%esi, %edx
	imull	-12(%ebp), %edx
	sarl	$15, %edx
	sall	$16, %edx
	addl	%edx, %ecx
	movl	-16(%ebp), %edx
	addl	%ecx, %edx
	movl	%edx, (%eax)
	movl	-20(%ebp), %eax
	movl	-32(%ebp), %edx
	addl	%edx, %eax
	movl	%eax, %ebx
	movl	20(%ebp), %eax
	sarl	$16, %eax
	movl	_ZL8angstart(,%eax,4), %eax
	movl	28(%ebp), %edx
	sall	$3, %edx
	addl	%edx, %eax
	movl	4(%eax), %eax
	movl	%eax, -48(%ebp)
	fildl	-48(%ebp)
	fstpl	-56(%ebp)
	flds	-28(%ebp)
	fmuls	-28(%ebp)
	flds	-24(%ebp)
	fmuls	-24(%ebp)
	faddp	%st, %st(1)
	fstpl	(%esp)
	call	sqrt
	fdivrl	-56(%ebp)
	fstps	-44(%ebp)
	flds	-44(%ebp)
	fstps	(%ebx)
	flds	_ZL8optistrx
	flds	-28(%ebp)
	faddp	%st, %st(1)
	fstps	-28(%ebp)
	flds	_ZL8optistry
	flds	-24(%ebp)
	faddp	%st, %st(1)
	fstps	-24(%ebp)
	movl	24(%ebp), %eax
	addl	%eax, 20(%ebp)
	addl	$4, -32(%ebp)
	movl	-32(%ebp), %eax
	cmpl	16(%ebp), %eax
	setne	%al
	testb	%al, %al
	jne	.L678
	addl	$64, %esp
	popl	%ebx
	.cfi_restore 3
	popl	%esi
	.cfi_restore 6
	popl	%ebp
	.cfi_restore 5
	.cfi_def_cfa 4, 4
	ret
	.cfi_endproc
.LFE63:
	.size	_Z9hrendzfogllllll, .-_Z9hrendzfogllllll
	.globl	_Z9vrendzfoglllll
	.type	_Z9vrendzfoglllll, @function
_Z9vrendzfoglllll:
.LFB64:
	.cfi_startproc
	pushl	%ebp
	.cfi_def_cfa_offset 8
	.cfi_offset 5, -8
	movl	%esp, %ebp
	.cfi_def_cfa_register 5
	pushl	%esi
	pushl	%ebx
	subl	$64, %esp
	.cfi_offset 6, -12
	.cfi_offset 3, -16
	movl	12(%ebp), %eax
	movl	ylookup(,%eax,4), %eax
	movl	8(%ebp), %edx
	sall	$2, %edx
	addl	%eax, %edx
	movl	_ZL10frameplace, %eax
	addl	%edx, %eax
	movl	%eax, -24(%ebp)
	movl	12(%ebp), %eax
	movl	ylookup(,%eax,4), %eax
	movl	16(%ebp), %edx
	sall	$2, %edx
	addl	%eax, %edx
	movl	_ZL10frameplace, %eax
	addl	%edx, %eax
	movl	%eax, 16(%ebp)
	fildl	8(%ebp)
	flds	_ZL8optistrx
	fmulp	%st, %st(1)
	fildl	12(%ebp)
	flds	_ZL8optiheix
	fmulp	%st, %st(1)
	faddp	%st, %st(1)
	flds	_ZL8optiaddx
	faddp	%st, %st(1)
	fstps	-32(%ebp)
	fildl	8(%ebp)
	flds	_ZL8optistry
	fmulp	%st, %st(1)
	fildl	12(%ebp)
	flds	_ZL8optiheiy
	fmulp	%st, %st(1)
	faddp	%st, %st(1)
	flds	_ZL8optiaddy
	faddp	%st, %st(1)
	fstps	-28(%ebp)
	movl	zbufoff, %eax
	movl	%eax, -20(%ebp)
	jmp	.L680
.L681:
	movl	_ZL6uurend, %eax
	movl	8(%ebp), %edx
	sall	$2, %edx
	addl	%edx, %eax
	movl	(%eax), %eax
	sarl	$16, %eax
	movl	_ZL8angstart(,%eax,4), %eax
	movl	20(%ebp), %edx
	sall	$3, %edx
	addl	%edx, %eax
	movl	(%eax), %eax
	movl	%eax, -16(%ebp)
	movl	_ZL6uurend, %eax
	movl	8(%ebp), %edx
	sall	$2, %edx
	addl	%edx, %eax
	movl	(%eax), %eax
	sarl	$16, %eax
	movl	_ZL8angstart(,%eax,4), %eax
	movl	20(%ebp), %edx
	sall	$3, %edx
	addl	%edx, %eax
	movl	4(%eax), %eax
	movl	%eax, -12(%ebp)
	movl	-12(%ebp), %eax
	sarl	$20, %eax
	movl	foglut+4(,%eax,8), %edx
	movl	foglut(,%eax,8), %eax
	andl	$32767, %eax
	movl	%eax, -12(%ebp)
	movl	-24(%ebp), %eax
	movl	vx5+19592, %edx
	movzbl	%dl, %ecx
	movl	-16(%ebp), %edx
	andl	$255, %edx
	movl	%ecx, %ebx
	subl	%edx, %ebx
	movl	%ebx, %edx
	imull	-12(%ebp), %edx
	movl	%edx, %ecx
	sarl	$15, %ecx
	movl	vx5+19592, %edx
	sarl	$8, %edx
	movzbl	%dl, %ebx
	movl	-16(%ebp), %edx
	sarl	$8, %edx
	andl	$255, %edx
	movl	%ebx, %esi
	subl	%edx, %esi
	movl	%esi, %edx
	imull	-12(%ebp), %edx
	sarl	$15, %edx
	sall	$8, %edx
	addl	%edx, %ecx
	movl	vx5+19592, %edx
	sarl	$16, %edx
	movzbl	%dl, %ebx
	movl	-16(%ebp), %edx
	sarl	$16, %edx
	andl	$255, %edx
	movl	%ebx, %esi
	subl	%edx, %esi
	movl	%esi, %edx
	imull	-12(%ebp), %edx
	sarl	$15, %edx
	sall	$16, %edx
	addl	%edx, %ecx
	movl	-16(%ebp), %edx
	addl	%ecx, %edx
	movl	%edx, (%eax)
	movl	-20(%ebp), %eax
	movl	-24(%ebp), %edx
	addl	%edx, %eax
	movl	%eax, %ebx
	movl	_ZL6uurend, %eax
	movl	8(%ebp), %edx
	sall	$2, %edx
	addl	%edx, %eax
	movl	(%eax), %eax
	sarl	$16, %eax
	movl	_ZL8angstart(,%eax,4), %eax
	movl	20(%ebp), %edx
	sall	$3, %edx
	addl	%edx, %eax
	movl	4(%eax), %eax
	movl	%eax, -48(%ebp)
	fildl	-48(%ebp)
	fstpl	-56(%ebp)
	flds	-32(%ebp)
	fmuls	-32(%ebp)
	flds	-28(%ebp)
	fmuls	-28(%ebp)
	faddp	%st, %st(1)
	fstpl	(%esp)
	call	sqrt
	fdivrl	-56(%ebp)
	fstps	-44(%ebp)
	flds	-44(%ebp)
	fstps	(%ebx)
	flds	_ZL8optistrx
	flds	-32(%ebp)
	faddp	%st, %st(1)
	fstps	-32(%ebp)
	flds	_ZL8optistry
	flds	-28(%ebp)
	faddp	%st, %st(1)
	fstps	-28(%ebp)
	movl	_ZL6uurend, %eax
	movl	8(%ebp), %edx
	sall	$2, %edx
	addl	%edx, %eax
	movl	_ZL6uurend, %edx
	movl	8(%ebp), %ecx
	sall	$2, %ecx
	addl	%ecx, %edx
	movl	(%edx), %ecx
	movl	_ZL6uurend, %edx
	movl	8(%ebp), %ebx
	addl	$1024, %ebx
	sall	$2, %ebx
	addl	%ebx, %edx
	movl	(%edx), %edx
	addl	%ecx, %edx
	movl	%edx, (%eax)
	addl	$4, -24(%ebp)
	movl	24(%ebp), %eax
	addl	%eax, 20(%ebp)
	addl	$1, 8(%ebp)
.L680:
	movl	-24(%ebp), %eax
	cmpl	16(%ebp), %eax
	setl	%al
	testb	%al, %al
	jne	.L681
	addl	$64, %esp
	popl	%ebx
	.cfi_restore 3
	popl	%esi
	.cfi_restore 6
	popl	%ebp
	.cfi_restore 5
	.cfi_def_cfa 4, 4
	ret
	.cfi_endproc
.LFE64:
	.size	_Z9vrendzfoglllll, .-_Z9vrendzfoglllll
	.globl	_Z9setcameraP8dpoint3dS0_S0_S0_fff
	.type	_Z9setcameraP8dpoint3dS0_S0_S0_fff, @function
_Z9setcameraP8dpoint3dS0_S0_S0_fff:
.LFB65:
	.cfi_startproc
	pushl	%ebp
	.cfi_def_cfa_offset 8
	.cfi_offset 5, -8
	movl	%esp, %ebp
	.cfi_def_cfa_register 5
	subl	$24, %esp
	movl	8(%ebp), %eax
	fldl	(%eax)
	fstps	-20(%ebp)
	flds	-20(%ebp)
	fstps	_ZL5gipos
	movl	8(%ebp), %eax
	fldl	8(%eax)
	fstps	-20(%ebp)
	flds	-20(%ebp)
	fstps	_ZL5gipos+4
	movl	8(%ebp), %eax
	fldl	16(%eax)
	fstps	-20(%ebp)
	flds	-20(%ebp)
	fstps	_ZL5gipos+8
	movl	12(%ebp), %eax
	fldl	(%eax)
	fstps	-20(%ebp)
	flds	-20(%ebp)
	fstps	_ZL5gistr
	movl	12(%ebp), %eax
	fldl	8(%eax)
	fstps	-20(%ebp)
	flds	-20(%ebp)
	fstps	_ZL5gistr+4
	movl	12(%ebp), %eax
	fldl	16(%eax)
	fstps	-20(%ebp)
	flds	-20(%ebp)
	fstps	_ZL5gistr+8
	movl	16(%ebp), %eax
	fldl	(%eax)
	fstps	-20(%ebp)
	flds	-20(%ebp)
	fstps	_ZL5gihei
	movl	16(%ebp), %eax
	fldl	8(%eax)
	fstps	-20(%ebp)
	flds	-20(%ebp)
	fstps	_ZL5gihei+4
	movl	16(%ebp), %eax
	fldl	16(%eax)
	fstps	-20(%ebp)
	flds	-20(%ebp)
	fstps	_ZL5gihei+8
	movl	20(%ebp), %eax
	fldl	(%eax)
	fstps	-20(%ebp)
	flds	-20(%ebp)
	fstps	_ZL5gifor
	movl	20(%ebp), %eax
	fldl	8(%eax)
	fstps	-20(%ebp)
	flds	-20(%ebp)
	fstps	_ZL5gifor+4
	movl	20(%ebp), %eax
	fldl	16(%eax)
	fstps	-20(%ebp)
	flds	-20(%ebp)
	fstps	_ZL5gifor+8
	movl	24(%ebp), %eax
	movl	%eax, _ZL4gihx
	movl	28(%ebp), %eax
	movl	%eax, _ZL4gihy
	movl	32(%ebp), %eax
	movl	%eax, _ZL4gihz
	movl	_ZL5gistr, %eax
	movl	%eax, _ZL4gixs
	movl	_ZL5gihei, %eax
	movl	%eax, _ZL4gixs+4
	movl	_ZL5gifor, %eax
	movl	%eax, _ZL4gixs+8
	movl	_ZL5gistr+4, %eax
	movl	%eax, _ZL4giys
	movl	_ZL5gihei+4, %eax
	movl	%eax, _ZL4giys+4
	movl	_ZL5gifor+4, %eax
	movl	%eax, _ZL4giys+8
	movl	_ZL5gistr+8, %eax
	movl	%eax, _ZL4gizs
	movl	_ZL5gihei+8, %eax
	movl	%eax, _ZL4gizs+4
	movl	_ZL5gifor+8, %eax
	movl	%eax, _ZL4gizs+8
	flds	_ZL5gipos
	flds	_ZL5gistr
	fmulp	%st, %st(1)
	flds	_ZL5gipos+4
	flds	_ZL5gistr+4
	fmulp	%st, %st(1)
	faddp	%st, %st(1)
	flds	_ZL5gipos+8
	flds	_ZL5gistr+8
	fmulp	%st, %st(1)
	faddp	%st, %st(1)
	fchs
	fstps	_ZL5giadd
	flds	_ZL5gipos
	flds	_ZL5gihei
	fmulp	%st, %st(1)
	flds	_ZL5gipos+4
	flds	_ZL5gihei+4
	fmulp	%st, %st(1)
	faddp	%st, %st(1)
	flds	_ZL5gipos+8
	flds	_ZL5gihei+8
	fmulp	%st, %st(1)
	faddp	%st, %st(1)
	fchs
	fstps	_ZL5giadd+4
	flds	_ZL5gipos
	flds	_ZL5gifor
	fmulp	%st, %st(1)
	flds	_ZL5gipos+4
	flds	_ZL5gifor+4
	fmulp	%st, %st(1)
	faddp	%st, %st(1)
	flds	_ZL5gipos+8
	flds	_ZL5gifor+8
	fmulp	%st, %st(1)
	faddp	%st, %st(1)
	fchs
	fstps	_ZL5giadd+8
	flds	_ZL4gihx
	fchs
	flds	_ZL5gistr
	fmulp	%st, %st(1)
	flds	_ZL5gihei
	flds	_ZL4gihy
	fmulp	%st, %st(1)
	fsubrp	%st, %st(1)
	flds	_ZL5gifor
	flds	_ZL4gihz
	fmulp	%st, %st(1)
	faddp	%st, %st(1)
	fstps	_ZL5gcorn
	flds	_ZL4gihx
	fchs
	flds	_ZL5gistr+4
	fmulp	%st, %st(1)
	flds	_ZL5gihei+4
	flds	_ZL4gihy
	fmulp	%st, %st(1)
	fsubrp	%st, %st(1)
	flds	_ZL5gifor+4
	flds	_ZL4gihz
	fmulp	%st, %st(1)
	faddp	%st, %st(1)
	fstps	_ZL5gcorn+4
	flds	_ZL4gihx
	fchs
	flds	_ZL5gistr+8
	fmulp	%st, %st(1)
	flds	_ZL5gihei+8
	flds	_ZL4gihy
	fmulp	%st, %st(1)
	fsubrp	%st, %st(1)
	flds	_ZL5gifor+8
	flds	_ZL4gihz
	fmulp	%st, %st(1)
	faddp	%st, %st(1)
	fstps	_ZL5gcorn+8
	movl	_ZL11xres_voxlap, %eax
	movl	%eax, -24(%ebp)
	fildl	-24(%ebp)
	flds	_ZL5gistr
	fmulp	%st, %st(1)
	flds	_ZL5gcorn
	faddp	%st, %st(1)
	fstps	_ZL5gcorn+12
	movl	_ZL11xres_voxlap, %eax
	movl	%eax, -24(%ebp)
	fildl	-24(%ebp)
	flds	_ZL5gistr+4
	fmulp	%st, %st(1)
	flds	_ZL5gcorn+4
	faddp	%st, %st(1)
	fstps	_ZL5gcorn+16
	movl	_ZL11xres_voxlap, %eax
	movl	%eax, -24(%ebp)
	fildl	-24(%ebp)
	flds	_ZL5gistr+8
	fmulp	%st, %st(1)
	flds	_ZL5gcorn+8
	faddp	%st, %st(1)
	fstps	_ZL5gcorn+20
	movl	_ZL11yres_voxlap, %eax
	movl	%eax, -24(%ebp)
	fildl	-24(%ebp)
	flds	_ZL5gihei
	fmulp	%st, %st(1)
	flds	_ZL5gcorn+12
	faddp	%st, %st(1)
	fstps	_ZL5gcorn+24
	movl	_ZL11yres_voxlap, %eax
	movl	%eax, -24(%ebp)
	fildl	-24(%ebp)
	flds	_ZL5gihei+4
	fmulp	%st, %st(1)
	flds	_ZL5gcorn+16
	faddp	%st, %st(1)
	fstps	_ZL5gcorn+28
	movl	_ZL11yres_voxlap, %eax
	movl	%eax, -24(%ebp)
	fildl	-24(%ebp)
	flds	_ZL5gihei+8
	fmulp	%st, %st(1)
	flds	_ZL5gcorn+20
	faddp	%st, %st(1)
	fstps	_ZL5gcorn+32
	movl	_ZL11yres_voxlap, %eax
	movl	%eax, -24(%ebp)
	fildl	-24(%ebp)
	flds	_ZL5gihei
	fmulp	%st, %st(1)
	flds	_ZL5gcorn
	faddp	%st, %st(1)
	fstps	_ZL5gcorn+36
	movl	_ZL11yres_voxlap, %eax
	movl	%eax, -24(%ebp)
	fildl	-24(%ebp)
	flds	_ZL5gihei+4
	fmulp	%st, %st(1)
	flds	_ZL5gcorn+4
	faddp	%st, %st(1)
	fstps	_ZL5gcorn+40
	movl	_ZL11yres_voxlap, %eax
	movl	%eax, -24(%ebp)
	fildl	-24(%ebp)
	flds	_ZL5gihei+8
	fmulp	%st, %st(1)
	flds	_ZL5gcorn+8
	faddp	%st, %st(1)
	fstps	_ZL5gcorn+44
	movl	$0, -4(%ebp)
	movl	$3, -8(%ebp)
	jmp	.L683
.L684:
	movl	-8(%ebp), %edx
	movl	%edx, %eax
	addl	%eax, %eax
	addl	%edx, %eax
	sall	$2, %eax
	addl	$_ZL5gcorn, %eax
	flds	4(%eax)
	movl	-4(%ebp), %edx
	movl	%edx, %eax
	addl	%eax, %eax
	addl	%edx, %eax
	sall	$2, %eax
	addl	$_ZL5gcorn, %eax
	flds	8(%eax)
	fmulp	%st, %st(1)
	movl	-8(%ebp), %edx
	movl	%edx, %eax
	addl	%eax, %eax
	addl	%edx, %eax
	sall	$2, %eax
	addl	$_ZL5gcorn, %eax
	flds	8(%eax)
	movl	-4(%ebp), %edx
	movl	%edx, %eax
	addl	%eax, %eax
	addl	%edx, %eax
	sall	$2, %eax
	addl	$_ZL5gcorn, %eax
	flds	4(%eax)
	fmulp	%st, %st(1)
	fsubrp	%st, %st(1)
	movl	-8(%ebp), %edx
	movl	%edx, %eax
	addl	%eax, %eax
	addl	%edx, %eax
	sall	$2, %eax
	addl	$ginor, %eax
	fstps	(%eax)
	movl	-8(%ebp), %edx
	movl	%edx, %eax
	addl	%eax, %eax
	addl	%edx, %eax
	sall	$2, %eax
	addl	$_ZL5gcorn, %eax
	flds	8(%eax)
	movl	-4(%ebp), %edx
	movl	%edx, %eax
	addl	%eax, %eax
	addl	%edx, %eax
	sall	$2, %eax
	addl	$_ZL5gcorn, %eax
	flds	(%eax)
	fmulp	%st, %st(1)
	movl	-8(%ebp), %edx
	movl	%edx, %eax
	addl	%eax, %eax
	addl	%edx, %eax
	sall	$2, %eax
	addl	$_ZL5gcorn, %eax
	flds	(%eax)
	movl	-4(%ebp), %edx
	movl	%edx, %eax
	addl	%eax, %eax
	addl	%edx, %eax
	sall	$2, %eax
	addl	$_ZL5gcorn, %eax
	flds	8(%eax)
	fmulp	%st, %st(1)
	fsubrp	%st, %st(1)
	movl	-8(%ebp), %edx
	movl	%edx, %eax
	addl	%eax, %eax
	addl	%edx, %eax
	sall	$2, %eax
	addl	$ginor, %eax
	fstps	4(%eax)
	movl	-8(%ebp), %edx
	movl	%edx, %eax
	addl	%eax, %eax
	addl	%edx, %eax
	sall	$2, %eax
	addl	$_ZL5gcorn, %eax
	flds	(%eax)
	movl	-4(%ebp), %edx
	movl	%edx, %eax
	addl	%eax, %eax
	addl	%edx, %eax
	sall	$2, %eax
	addl	$_ZL5gcorn, %eax
	flds	4(%eax)
	fmulp	%st, %st(1)
	movl	-8(%ebp), %edx
	movl	%edx, %eax
	addl	%eax, %eax
	addl	%edx, %eax
	sall	$2, %eax
	addl	$_ZL5gcorn, %eax
	flds	4(%eax)
	movl	-4(%ebp), %edx
	movl	%edx, %eax
	addl	%eax, %eax
	addl	%edx, %eax
	sall	$2, %eax
	addl	$_ZL5gcorn, %eax
	flds	(%eax)
	fmulp	%st, %st(1)
	fsubrp	%st, %st(1)
	movl	-8(%ebp), %edx
	movl	%edx, %eax
	addl	%eax, %eax
	addl	%edx, %eax
	sall	$2, %eax
	addl	$ginor, %eax
	fstps	8(%eax)
	movl	-4(%ebp), %eax
	movl	%eax, -8(%ebp)
	addl	$1, -4(%ebp)
.L683:
	cmpl	$3, -4(%ebp)
	setle	%al
	testb	%al, %al
	jne	.L684
	leave
	.cfi_restore 5
	.cfi_def_cfa 4, 4
	ret
	.cfi_endproc
.LFE65:
	.size	_Z9setcameraP8dpoint3dS0_S0_S0_fff, .-_Z9setcameraP8dpoint3dS0_S0_S0_fff
	.globl	_Z8opticastv
	.type	_Z8opticastv, @function
_Z8opticastv:
.LFB66:
	.cfi_startproc
	.cfi_personality 0,__gxx_personality_v0
	.cfi_lsda 0,.LLSDA66
	pushl	%ebp
	.cfi_def_cfa_offset 8
	.cfi_offset 5, -8
	movl	%esp, %ebp
	.cfi_def_cfa_register 5
	pushl	%esi
	pushl	%ebx
	subl	$176, %esp
	.cfi_offset 6, -12
	.cfi_offset 3, -16
	flds	_ZL5gifor+8
	fldz
	fucomip	%st(1), %st
	fstp	%st(0)
	jbe	.L884
.L858:
	movl	$-1, _ZL9giforzsgn
	jmp	.L688
.L884:
	movl	$1, _ZL9giforzsgn
.L688:
	movl	$4096, _ZL5gixyi
	movl	_ZL5gixyi, %eax
	negl	%eax
	movl	%eax, _ZL5gixyi+4
	movss	_ZL5gipos, %xmm0
	cvttss2si	%xmm0, %eax
	movl	%eax, _ZL6glipos
	movss	_ZL5gipos+4, %xmm0
	cvttss2si	%xmm0, %eax
	movl	%eax, _ZL6glipos+4
	movss	_ZL5gipos+8, %xmm0
	cvttss2si	%xmm0, %eax
	movl	%eax, _ZL6glipos+8
	movl	_ZL6glipos+4, %eax
	movl	%eax, %edx
	sall	$10, %edx
	movl	_ZL6glipos, %eax
	addl	%edx, %eax
	sall	$2, %eax
	addl	$sptr, %eax
	movl	%eax, gpixy
	flds	_ZL5gipos+8
	flds	.LC24
	fmulp	%st, %st(1)
	flds	.LC7
	fsubrp	%st, %st(1)
	movl	$_ZL5gposz, 4(%esp)
	fstps	(%esp)
	call	_ZL4ftolfPl
	flds	_ZL5gipos
	movl	_ZL6glipos, %eax
	movl	%eax, -144(%ebp)
	fildl	-144(%ebp)
	fsubrp	%st, %st(1)
	fstps	_ZL9gposxfrac+4
	flds	_ZL9gposxfrac+4
	fld1
	fsubp	%st, %st(1)
	fstps	_ZL9gposxfrac
	flds	_ZL5gipos+4
	movl	_ZL6glipos+4, %eax
	movl	%eax, -144(%ebp)
	fildl	-144(%ebp)
	fsubrp	%st, %st(1)
	fstps	_ZL9gposyfrac+4
	flds	_ZL9gposyfrac+4
	fld1
	fsubp	%st, %st(1)
	fstps	_ZL9gposyfrac
	movl	$0, -52(%ebp)
	jmp	.L689
.L690:
	movl	-52(%ebp), %eax
	movl	%eax, %edx
	sall	$20, %edx
	movl	_ZL5gposz, %eax
	subl	%eax, %edx
	movl	-52(%ebp), %eax
	movl	%edx, gylookup(,%eax,4)
	addl	$1, -52(%ebp)
.L689:
	cmpl	$259, -52(%ebp)
	setle	%al
	testb	%al, %al
	jne	.L690
	movl	vx5+19584, %eax
	cmpl	$2046, %eax
	jg	.L691
	movl	vx5+19584, %eax
	movl	$1, %edx
	testl	%eax, %eax
	cmovle	%edx, %eax
	sall	$20, %eax
	jmp	.L692
.L691:
	movl	$2146435072, %eax
.L692:
	movl	%eax, _ZL12gmaxscandist
	movl	_ZL8ofogdist, %eax
	testl	%eax, %eax
	jns	.L693
	movl	$_Z6hrendzllllll, hrend
	movl	$_Z6vrendzlllll, vrend
	jmp	.L694
.L693:
	movl	$_Z9hrendzfogllllll, hrend
	movl	$_Z9vrendzfoglllll, vrend
.L694:
	movl	_ZL8ofogdist, %eax
	testl	%eax, %eax
	jns	.L695
	movl	_ZL6skypic, %eax
	movl	%eax, _ZL7nskypic
	jmp	.L696
.L695:
	movl	$0, skyoff
	movl	skyoff, %eax
	movl	%eax, _ZL7nskypic
.L696:
	movl	gpixy, %eax
	movl	(%eax), %eax
	movl	%eax, _ZL7gstartv
	movl	_ZL6glipos+8, %edx
	movl	_ZL7gstartv, %eax
	addl	$1, %eax
	movzbl	(%eax), %eax
	movsbl	%al, %eax
	cmpl	%eax, %edx
	jl	.L697
.L699:
	movl	_ZL7gstartv, %eax
	movzbl	(%eax), %eax
	testb	%al, %al
	je	.L685
	movl	_ZL7gstartv, %edx
	movl	_ZL7gstartv, %eax
	movzbl	(%eax), %eax
	movsbl	%al, %eax
	sall	$2, %eax
	addl	%edx, %eax
	movl	%eax, _ZL7gstartv
	movl	_ZL6glipos+8, %edx
	movl	_ZL7gstartv, %eax
	addl	$1, %eax
	movzbl	(%eax), %eax
	movsbl	%al, %eax
	cmpl	%eax, %edx
	setge	%al
	testb	%al, %al
	jne	.L699
	movl	_ZL6glipos+8, %edx
	movl	_ZL7gstartv, %eax
	addl	$3, %eax
	movzbl	(%eax), %eax
	movsbl	%al, %eax
	cmpl	%eax, %edx
	jl	.L685
	movl	_ZL7gstartv, %eax
	addl	$3, %eax
	movzbl	(%eax), %eax
	movsbl	%al, %eax
	movl	%eax, _ZL8gstartz0
	jmp	.L700
.L697:
	movl	$0, _ZL8gstartz0
.L700:
	movl	_ZL7gstartv, %eax
	addl	$1, %eax
	movzbl	(%eax), %eax
	movsbl	%al, %eax
	movl	%eax, _ZL8gstartz1
	flds	_ZL5gifor+8
	fldz
	fucomip	%st(1), %st
	jp	.L897
	fldz
	fucomip	%st(1), %st
	fstp	%st(0)
	jne	.L701
.L859:
	movl	.LC27, %eax
	movl	%eax, -88(%ebp)
	jmp	.L703
.L897:
	fstp	%st(0)
.L701:
	flds	_ZL4gihz
	flds	_ZL5gifor+8
	fdivrp	%st, %st(1)
	fstps	-88(%ebp)
.L703:
	flds	-88(%ebp)
	flds	.LC28
	fxch	%st(1)
	fucomip	%st(1), %st
	fstp	%st(0)
	jbe	.L885
.L860:
	flds	.LC27
	flds	-88(%ebp)
	fxch	%st(1)
	fucomip	%st(1), %st
	fstp	%st(0)
	seta	%al
	jmp	.L706
.L885:
	movl	$1, %eax
.L706:
	testb	%al, %al
	je	.L707
	flds	-88(%ebp)
	flds	.LC28
	fxch	%st(1)
	fucomip	%st(1), %st
	fstp	%st(0)
	jbe	.L886
.L861:
	movl	-88(%ebp), %eax
	jmp	.L710
.L886:
	movl	.LC28, %eax
.L710:
	jmp	.L711
.L707:
	movl	.LC27, %eax
.L711:
	movl	%eax, -88(%ebp)
	flds	_ZL5gistr+8
	fmuls	-88(%ebp)
	flds	_ZL4gihx
	faddp	%st, %st(1)
	fstps	-40(%ebp)
	flds	_ZL5gihei+8
	fmuls	-88(%ebp)
	flds	_ZL4gihy
	faddp	%st, %st(1)
	fstps	-36(%ebp)
	movl	vx5+19572, %eax
	negl	%eax
	movl	%eax, -144(%ebp)
	fildl	-144(%ebp)
	fstps	_ZL3wx0
	movl	_ZL11xres_voxlap, %eax
	leal	-1(%eax), %edx
	movl	vx5+19572, %eax
	addl	%edx, %eax
	movl	%eax, -144(%ebp)
	fildl	-144(%ebp)
	fstps	_ZL3wx1
	movl	vx5+19572, %eax
	negl	%eax
	movl	%eax, -144(%ebp)
	fildl	-144(%ebp)
	fstps	_ZL3wy0
	movl	_ZL11yres_voxlap, %eax
	leal	-1(%eax), %edx
	movl	vx5+19572, %eax
	addl	%edx, %eax
	movl	%eax, -144(%ebp)
	fildl	-144(%ebp)
	fstps	_ZL3wy1
	movl	_ZL3wx0, %eax
	movl	$_ZL4iwx0, 4(%esp)
	movl	%eax, (%esp)
	call	_ZL4ftolfPl
	movl	_ZL3wx1, %eax
	movl	$_ZL4iwx1, 4(%esp)
	movl	%eax, (%esp)
	call	_ZL4ftolfPl
	movl	_ZL3wy0, %eax
	movl	$_ZL4iwy0, 4(%esp)
	movl	%eax, (%esp)
	call	_ZL4ftolfPl
	movl	_ZL3wy1, %eax
	movl	$_ZL4iwy1, 4(%esp)
	movl	%eax, (%esp)
	call	_ZL4ftolfPl
	flds	_ZL3wx0
	fsubs	-40(%ebp)
	fstps	-32(%ebp)
	flds	_ZL3wy0
	fsubs	-36(%ebp)
	fstps	-28(%ebp)
	flds	_ZL3wx1
	fsubs	-40(%ebp)
	fstps	-24(%ebp)
	flds	_ZL3wy1
	fsubs	-36(%ebp)
	fstps	-20(%ebp)
	movl	_ZL3wx0, %eax
	movl	%eax, -60(%ebp)
	movl	-60(%ebp), %eax
	movl	%eax, -84(%ebp)
	movl	_ZL3wy0, %eax
	movl	%eax, -72(%ebp)
	movl	-72(%ebp), %eax
	movl	%eax, -80(%ebp)
	movl	_ZL3wx1, %eax
	movl	%eax, -68(%ebp)
	movl	-68(%ebp), %eax
	movl	%eax, -76(%ebp)
	movl	_ZL3wy1, %eax
	movl	%eax, -56(%ebp)
	movl	-56(%ebp), %eax
	movl	%eax, -64(%ebp)
	fldz
	flds	-28(%ebp)
	fxch	%st(1)
	fucomip	%st(1), %st
	fstp	%st(0)
	jbe	.L712
.L862:
	fldz
	flds	-32(%ebp)
	fxch	%st(1)
	fucomip	%st(1), %st
	fstp	%st(0)
	jbe	.L714
.L863:
	flds	-32(%ebp)
	fmuls	-28(%ebp)
	fstpl	(%esp)
	call	sqrt
	fstps	-88(%ebp)
	flds	-40(%ebp)
	fsubs	-88(%ebp)
	fstps	-84(%ebp)
	flds	-36(%ebp)
	fsubs	-88(%ebp)
	fstps	-80(%ebp)
.L714:
	flds	-24(%ebp)
	fldz
	fxch	%st(1)
	fucomip	%st(1), %st
	fstp	%st(0)
	jbe	.L712
.L864:
	flds	-24(%ebp)
	fchs
	fmuls	-28(%ebp)
	fstpl	(%esp)
	call	sqrt
	fstps	-88(%ebp)
	flds	-40(%ebp)
	fadds	-88(%ebp)
	fstps	-76(%ebp)
	flds	-36(%ebp)
	fsubs	-88(%ebp)
	fstps	-72(%ebp)
.L712:
	flds	-20(%ebp)
	fldz
	fxch	%st(1)
	fucomip	%st(1), %st
	fstp	%st(0)
	jbe	.L717
.L865:
	flds	-24(%ebp)
	fldz
	fxch	%st(1)
	fucomip	%st(1), %st
	fstp	%st(0)
	jbe	.L719
.L866:
	flds	-24(%ebp)
	fmuls	-20(%ebp)
	fstpl	(%esp)
	call	sqrt
	fstps	-88(%ebp)
	flds	-40(%ebp)
	fadds	-88(%ebp)
	fstps	-68(%ebp)
	flds	-36(%ebp)
	fadds	-88(%ebp)
	fstps	-64(%ebp)
.L719:
	fldz
	flds	-32(%ebp)
	fxch	%st(1)
	fucomip	%st(1), %st
	fstp	%st(0)
	jbe	.L717
.L867:
	flds	-32(%ebp)
	fchs
	fmuls	-20(%ebp)
	fstpl	(%esp)
	call	sqrt
	fstps	-88(%ebp)
	flds	-40(%ebp)
	fsubs	-88(%ebp)
	fstps	-60(%ebp)
	flds	-36(%ebp)
	fadds	-88(%ebp)
	fstps	-56(%ebp)
.L717:
	flds	-84(%ebp)
	flds	-76(%ebp)
	fxch	%st(1)
	fucomip	%st(1), %st
	fstp	%st(0)
	jbe	.L722
.L868:
	fldz
	flds	-32(%ebp)
	fxch	%st(1)
	fucomip	%st(1), %st
	fstp	%st(0)
	jbe	.L887
.L869:
	flds	-32(%ebp)
	fdivs	-24(%ebp)
	fmuls	-28(%ebp)
	fadds	-36(%ebp)
	fstps	-80(%ebp)
	jmp	.L722
.L887:
	flds	-24(%ebp)
	fdivs	-32(%ebp)
	fmuls	-28(%ebp)
	fadds	-36(%ebp)
	fstps	-72(%ebp)
.L722:
	flds	-72(%ebp)
	flds	-64(%ebp)
	fxch	%st(1)
	fucomip	%st(1), %st
	fstp	%st(0)
	jbe	.L726
.L870:
	fldz
	flds	-28(%ebp)
	fxch	%st(1)
	fucomip	%st(1), %st
	fstp	%st(0)
	jbe	.L888
.L871:
	flds	-28(%ebp)
	fdivs	-20(%ebp)
	fmuls	-24(%ebp)
	fadds	-40(%ebp)
	fstps	-76(%ebp)
	jmp	.L726
.L888:
	flds	-20(%ebp)
	fdivs	-28(%ebp)
	fmuls	-24(%ebp)
	fadds	-40(%ebp)
	fstps	-68(%ebp)
.L726:
	flds	-60(%ebp)
	flds	-68(%ebp)
	fxch	%st(1)
	fucomip	%st(1), %st
	fstp	%st(0)
	jbe	.L730
.L872:
	fldz
	flds	-32(%ebp)
	fxch	%st(1)
	fucomip	%st(1), %st
	fstp	%st(0)
	jbe	.L889
.L873:
	flds	-32(%ebp)
	fdivs	-24(%ebp)
	fmuls	-20(%ebp)
	fadds	-36(%ebp)
	fstps	-56(%ebp)
	jmp	.L730
.L889:
	flds	-24(%ebp)
	fdivs	-32(%ebp)
	fmuls	-20(%ebp)
	fadds	-36(%ebp)
	fstps	-64(%ebp)
.L730:
	flds	-80(%ebp)
	flds	-56(%ebp)
	fxch	%st(1)
	fucomip	%st(1), %st
	fstp	%st(0)
	jbe	.L734
.L874:
	fldz
	flds	-28(%ebp)
	fxch	%st(1)
	fucomip	%st(1), %st
	fstp	%st(0)
	jbe	.L890
.L875:
	flds	-28(%ebp)
	fdivs	-20(%ebp)
	fmuls	-32(%ebp)
	fadds	-40(%ebp)
	fstps	-84(%ebp)
	jmp	.L734
.L890:
	flds	-20(%ebp)
	fdivs	-28(%ebp)
	fmuls	-32(%ebp)
	fadds	-40(%ebp)
	fstps	-60(%ebp)
.L734:
	flds	-84(%ebp)
	fldl	.LC29
	fsubrp	%st, %st(1)
	fstps	-84(%ebp)
	flds	-76(%ebp)
	fldl	.LC29
	faddp	%st, %st(1)
	fstps	-76(%ebp)
	flds	-72(%ebp)
	fldl	.LC29
	fsubrp	%st, %st(1)
	fstps	-72(%ebp)
	flds	-64(%ebp)
	fldl	.LC29
	faddp	%st, %st(1)
	fstps	-64(%ebp)
	flds	-60(%ebp)
	fldl	.LC29
	fsubrp	%st, %st(1)
	fstps	-60(%ebp)
	flds	-68(%ebp)
	fldl	.LC29
	faddp	%st, %st(1)
	fstps	-68(%ebp)
	flds	-80(%ebp)
	fldl	.LC29
	fsubrp	%st, %st(1)
	fstps	-80(%ebp)
	flds	-56(%ebp)
	fldl	.LC29
	faddp	%st, %st(1)
	fstps	-56(%ebp)
	flds	_ZL4gihz
	flds	.LC24
	fdivp	%st, %st(1)
	fstps	-88(%ebp)
	flds	_ZL5gistr
	fmuls	-88(%ebp)
	fstps	_ZL8optistrx
	flds	_ZL5gihei
	fmuls	-88(%ebp)
	fstps	_ZL8optiheix
	flds	_ZL5gcorn
	fmuls	-88(%ebp)
	fstps	_ZL8optiaddx
	flds	_ZL5gistr+4
	fmuls	-88(%ebp)
	fstps	_ZL8optistry
	flds	_ZL5gihei+4
	fmuls	-88(%ebp)
	fstps	_ZL8optiheiy
	flds	_ZL5gcorn+4
	fmuls	-88(%ebp)
	fstps	_ZL8optiaddy
	flds	-40(%ebp)
	flds	.LC30
	fmulp	%st, %st(1)
	leal	-104(%ebp), %eax
	movl	%eax, 4(%esp)
	fstps	(%esp)
	call	_ZL4ftolfPl
	flds	-36(%ebp)
	flds	.LC30
	fmulp	%st, %st(1)
	leal	-100(%ebp), %eax
	movl	%eax, 4(%esp)
	fstps	(%esp)
	call	_ZL4ftolfPl
	flds	-76(%ebp)
	fsubs	-84(%ebp)
	movl	vx5+19572, %eax
	movl	%eax, -144(%ebp)
	fildl	-144(%ebp)
	fdivrp	%st, %st(1)
	leal	-124(%ebp), %eax
	movl	%eax, 4(%esp)
	fstps	(%esp)
	call	_ZL4ftolfPl
	fldz
	flds	-28(%ebp)
	fxch	%st(1)
	fucomip	%st(1), %st
	fstp	%st(0)
	jbe	.L738
.L876:
	movl	-124(%ebp), %eax
	testl	%eax, %eax
	jle	.L738
	flds	-76(%ebp)
	fsubs	-84(%ebp)
	movl	-124(%ebp), %eax
	movl	%eax, -144(%ebp)
	fildl	-144(%ebp)
	fdivrp	%st, %st(1)
	fstps	-16(%ebp)
	flds	_ZL3wy0
	fsubs	-36(%ebp)
	fld1
	fdivp	%st, %st(1)
	fstps	_ZL3grd
	movl	radar, %eax
	movl	%eax, _ZL8gscanptr
	movl	$-1, _ZL9skycurlng
	movl	_ZL9giforzsgn, %eax
	negl	%eax
	movl	%eax, _ZL9skycurdir
	movl	$0, -52(%ebp)
	flds	-16(%ebp)
	flds	.LC7
	fmulp	%st, %st(1)
	fadds	-84(%ebp)
	fstps	-88(%ebp)
	jmp	.L740
.L743:
	movl	_ZL3wy0, %eax
	leal	-108(%ebp), %edx
	movl	%edx, 20(%esp)
	leal	-112(%ebp), %edx
	movl	%edx, 16(%esp)
	movl	%eax, 12(%esp)
	movl	-88(%ebp), %eax
	movl	%eax, 8(%esp)
	movl	-36(%ebp), %eax
	movl	%eax, 4(%esp)
	movl	-40(%ebp), %eax
	movl	%eax, (%esp)
	call	_Z5vlineffffPlS_
	movl	_ZL9giforzsgn, %eax
	testl	%eax, %eax
	jns	.L741
	movl	_ZL8gscanptr, %eax
	movl	-112(%ebp), %edx
	sall	$3, %edx
	addl	%eax, %edx
	movl	-52(%ebp), %eax
	movl	%edx, _ZL8angstart(,%eax,4)
	jmp	.L742
.L741:
	movl	_ZL8gscanptr, %eax
	movl	-108(%ebp), %edx
	sall	$3, %edx
	negl	%edx
	addl	%eax, %edx
	movl	-52(%ebp), %eax
	movl	%edx, _ZL8angstart(,%eax,4)
.L742:
	movl	_ZL8gscanptr, %ecx
	movl	-108(%ebp), %edx
	movl	-112(%ebp), %eax
	movl	%edx, %ebx
	subl	%eax, %ebx
	movl	%ebx, %eax
	movl	%eax, %edx
	sarl	$31, %edx
	xorl	%edx, %eax
	subl	%edx, %eax
	addl	$1, %eax
	sall	$3, %eax
	addl	%ecx, %eax
	movl	%eax, _ZL8gscanptr
	flds	-88(%ebp)
	fadds	-16(%ebp)
	fstps	-88(%ebp)
	addl	$1, -52(%ebp)
.L740:
	movl	-124(%ebp), %eax
	cmpl	%eax, -52(%ebp)
	setl	%al
	testb	%al, %al
	jne	.L743
	movl	-124(%ebp), %eax
	sall	$16, %eax
	movl	%eax, -124(%ebp)
	movl	-124(%ebp), %eax
	movl	%eax, -144(%ebp)
	fildl	-144(%ebp)
	flds	-76(%ebp)
	fsubs	-84(%ebp)
	flds	_ZL3grd
	fmulp	%st, %st(1)
	fdivrp	%st, %st(1)
	fstps	-88(%ebp)
	flds	-40(%ebp)
	fsubs	-84(%ebp)
	flds	_ZL3grd
	fmulp	%st, %st(1)
	fmuls	-88(%ebp)
	leal	-96(%ebp), %eax
	movl	%eax, 4(%esp)
	fstps	(%esp)
	call	_ZL4ftolfPl
	flds	-40(%ebp)
	flds	.LC7
	fsubrp	%st, %st(1)
	leal	-108(%ebp), %eax
	movl	%eax, 4(%esp)
	fstps	(%esp)
	call	_ZL4ftolfPl
	movl	_ZL11xres_voxlap, %eax
	movl	-108(%ebp), %edx
	addl	$1, %edx
	movl	%eax, 4(%esp)
	movl	%edx, (%esp)
	call	_ZL7lbound0ll
	movl	%eax, -112(%ebp)
	movl	_ZL11xres_voxlap, %edx
	movl	-108(%ebp), %eax
	movl	%edx, 4(%esp)
	movl	%eax, (%esp)
	call	_ZL7lbound0ll
	movl	%eax, -108(%ebp)
	flds	-36(%ebp)
	flds	.LC31
	fsubrp	%st, %st(1)
	leal	-116(%ebp), %eax
	movl	%eax, 4(%esp)
	fstps	(%esp)
	call	_ZL4ftolfPl
	movl	-116(%ebp), %edx
	movl	_ZL11yres_voxlap, %eax
	cmpl	%eax, %edx
	jl	.L744
	movl	_ZL11yres_voxlap, %eax
	subl	$1, %eax
	movl	%eax, -116(%ebp)
.L744:
	movl	-108(%ebp), %eax
	movl	%eax, -144(%ebp)
	fildl	-144(%ebp)
	fsubs	-40(%ebp)
	fabs
	fld1
	faddp	%st, %st(1)
	flds	-88(%ebp)
	fmulp	%st, %st(1)
	fldl	.LC32
	fdivrp	%st, %st(1)
	flds	-36(%ebp)
	faddp	%st, %st(1)
	fstps	-16(%ebp)
	jmp	.L745
.L749:
	movl	-116(%ebp), %eax
	subl	$1, %eax
	movl	%eax, -116(%ebp)
.L745:
	movl	-116(%ebp), %eax
	movl	%eax, -144(%ebp)
	fildl	-144(%ebp)
	flds	-16(%ebp)
	fxch	%st(1)
	fucomip	%st(1), %st
	fstp	%st(0)
	jbe	.L746
.L877:
	movl	-116(%ebp), %eax
	testl	%eax, %eax
	js	.L746
	movl	$1, %eax
	jmp	.L748
.L746:
	movl	$0, %eax
.L748:
	testb	%al, %al
	jne	.L749
	movl	-116(%ebp), %eax
	testl	%eax, %eax
	js	.L738
	leal	-92(%ebp), %eax
	movl	%eax, 4(%esp)
	movl	-88(%ebp), %eax
	movl	%eax, (%esp)
	call	_ZL4ftolfPl
	jmp	.L750
.L753:
	movl	-116(%ebp), %eax
	movl	%eax, %edx
	sall	$16, %edx
	movl	-100(%ebp), %eax
	subl	%eax, %edx
	movl	-92(%ebp), %eax
	movl	%edx, 4(%esp)
	movl	%eax, (%esp)
	call	_ZL14isshldiv16safell
	testl	%eax, %eax
	setne	%al
	testb	%al, %al
	jne	.L893
.L751:
	movl	-116(%ebp), %eax
	subl	$1, %eax
	movl	%eax, -116(%ebp)
.L750:
	movl	-116(%ebp), %eax
	notl	%eax
	shrl	$31, %eax
	testb	%al, %al
	jne	.L753
	jmp	.L752
.L893:
	nop
.L752:
	movl	_ZL9giforzsgn, %eax
	testl	%eax, %eax
	jns	.L754
	movl	-116(%ebp), %eax
	negl	%eax
	movl	%eax, -52(%ebp)
	jmp	.L756
.L754:
	movl	-116(%ebp), %eax
	movl	%eax, -52(%ebp)
	jmp	.L756
.L766:
	movl	-116(%ebp), %eax
	movl	%eax, %edx
	sall	$16, %edx
	movl	-100(%ebp), %eax
	subl	%eax, %edx
	movl	-92(%ebp), %eax
	movl	%edx, 4(%esp)
	movl	%eax, (%esp)
	call	_ZL8shldiv16ll
	movl	%eax, -12(%ebp)
	movl	-112(%ebp), %eax
	movl	%eax, %edx
	sall	$16, %edx
	movl	-104(%ebp), %eax
	subl	%eax, %edx
	movl	-12(%ebp), %eax
	movl	%eax, 4(%esp)
	movl	%edx, (%esp)
	call	_ZL8mulshr16ll
	movl	-96(%ebp), %edx
	addl	%edx, %eax
	movl	%eax, -48(%ebp)
	jmp	.L757
.L760:
	movl	-12(%ebp), %eax
	subl	%eax, -48(%ebp)
	movl	-112(%ebp), %eax
	subl	$1, %eax
	movl	%eax, -112(%ebp)
.L757:
	movl	-112(%ebp), %eax
	testl	%eax, %eax
	jle	.L758
	movl	-48(%ebp), %eax
	cmpl	-12(%ebp), %eax
	jl	.L758
	movl	$1, %eax
	jmp	.L759
.L758:
	movl	$0, %eax
.L759:
	testb	%al, %al
	jne	.L760
	movl	-108(%ebp), %edx
	movl	-112(%ebp), %eax
	movl	%edx, %ecx
	subl	%eax, %ecx
	movl	%ecx, %eax
	movl	%eax, %edx
	imull	-12(%ebp), %edx
	movl	-48(%ebp), %eax
	addl	%edx, %eax
	movl	%eax, -44(%ebp)
	jmp	.L761
.L764:
	movl	-12(%ebp), %eax
	addl	%eax, -44(%ebp)
	movl	-108(%ebp), %eax
	addl	$1, %eax
	movl	%eax, -108(%ebp)
.L761:
	movl	-108(%ebp), %edx
	movl	_ZL11xres_voxlap, %eax
	cmpl	%eax, %edx
	jge	.L762
	movl	-124(%ebp), %eax
	cmpl	%eax, -44(%ebp)
	jge	.L762
	movl	$1, %eax
	jmp	.L763
.L762:
	movl	$0, %eax
.L763:
	testb	%al, %al
	jne	.L764
	movl	-112(%ebp), %edx
	movl	-108(%ebp), %eax
	cmpl	%eax, %edx
	jge	.L765
	movl	hrend, %eax
	movl	-108(%ebp), %ebx
	movl	-116(%ebp), %ecx
	movl	-112(%ebp), %edx
	movl	-52(%ebp), %esi
	movl	%esi, 20(%esp)
	movl	-12(%ebp), %esi
	movl	%esi, 16(%esp)
	movl	-48(%ebp), %esi
	movl	%esi, 12(%esp)
	movl	%ebx, 8(%esp)
	movl	%ecx, 4(%esp)
	movl	%edx, (%esp)
.LEHB6:
	call	*%eax
.L765:
	movl	-116(%ebp), %eax
	subl	$1, %eax
	movl	%eax, -116(%ebp)
	movl	_ZL9giforzsgn, %eax
	subl	%eax, -52(%ebp)
.L756:
	movl	-116(%ebp), %eax
	notl	%eax
	shrl	$31, %eax
	testb	%al, %al
	jne	.L766
.L738:
	flds	-64(%ebp)
	fsubs	-72(%ebp)
	movl	vx5+19572, %eax
	movl	%eax, -144(%ebp)
	fildl	-144(%ebp)
	fdivrp	%st, %st(1)
	leal	-124(%ebp), %eax
	movl	%eax, 4(%esp)
	fstps	(%esp)
	call	_ZL4ftolfPl
	flds	-24(%ebp)
	fldz
	fxch	%st(1)
	fucomip	%st(1), %st
	fstp	%st(0)
	jbe	.L767
.L878:
	movl	-124(%ebp), %eax
	testl	%eax, %eax
	jle	.L767
	flds	-64(%ebp)
	fsubs	-72(%ebp)
	movl	-124(%ebp), %eax
	movl	%eax, -144(%ebp)
	fildl	-144(%ebp)
	fdivrp	%st, %st(1)
	fstps	-16(%ebp)
	flds	_ZL3wx1
	fsubs	-40(%ebp)
	fld1
	fdivp	%st, %st(1)
	fstps	_ZL3grd
	movl	radar, %eax
	movl	%eax, _ZL8gscanptr
	movl	$-1, _ZL9skycurlng
	movl	_ZL9giforzsgn, %eax
	negl	%eax
	movl	%eax, _ZL9skycurdir
	movl	$0, -52(%ebp)
	flds	-16(%ebp)
	flds	.LC7
	fmulp	%st, %st(1)
	fadds	-72(%ebp)
	fstps	-88(%ebp)
	jmp	.L769
.L772:
	movl	_ZL3wx1, %eax
	leal	-108(%ebp), %edx
	movl	%edx, 20(%esp)
	leal	-112(%ebp), %edx
	movl	%edx, 16(%esp)
	movl	-88(%ebp), %edx
	movl	%edx, 12(%esp)
	movl	%eax, 8(%esp)
	movl	-36(%ebp), %eax
	movl	%eax, 4(%esp)
	movl	-40(%ebp), %eax
	movl	%eax, (%esp)
	call	_Z5hlineffffPlS_
	movl	_ZL9giforzsgn, %eax
	testl	%eax, %eax
	jns	.L770
	movl	_ZL8gscanptr, %eax
	movl	-112(%ebp), %edx
	sall	$3, %edx
	negl	%edx
	addl	%eax, %edx
	movl	-52(%ebp), %eax
	movl	%edx, _ZL8angstart(,%eax,4)
	jmp	.L771
.L770:
	movl	_ZL8gscanptr, %eax
	movl	-108(%ebp), %edx
	sall	$3, %edx
	addl	%eax, %edx
	movl	-52(%ebp), %eax
	movl	%edx, _ZL8angstart(,%eax,4)
.L771:
	movl	_ZL8gscanptr, %ecx
	movl	-108(%ebp), %edx
	movl	-112(%ebp), %eax
	movl	%edx, %ebx
	subl	%eax, %ebx
	movl	%ebx, %eax
	movl	%eax, %edx
	sarl	$31, %edx
	xorl	%edx, %eax
	subl	%edx, %eax
	addl	$1, %eax
	sall	$3, %eax
	addl	%ecx, %eax
	movl	%eax, _ZL8gscanptr
	flds	-88(%ebp)
	fadds	-16(%ebp)
	fstps	-88(%ebp)
	addl	$1, -52(%ebp)
.L769:
	movl	-124(%ebp), %eax
	cmpl	%eax, -52(%ebp)
	setl	%al
	testb	%al, %al
	jne	.L772
	movl	-124(%ebp), %eax
	sall	$16, %eax
	movl	%eax, -124(%ebp)
	movl	-124(%ebp), %eax
	movl	%eax, -144(%ebp)
	fildl	-144(%ebp)
	flds	-64(%ebp)
	fsubs	-72(%ebp)
	flds	_ZL3grd
	fmulp	%st, %st(1)
	fdivrp	%st, %st(1)
	fstps	-88(%ebp)
	flds	-36(%ebp)
	fsubs	-72(%ebp)
	flds	_ZL3grd
	fmulp	%st, %st(1)
	fmuls	-88(%ebp)
	leal	-96(%ebp), %eax
	movl	%eax, 4(%esp)
	fstps	(%esp)
	call	_ZL4ftolfPl
	flds	-36(%ebp)
	flds	.LC7
	fsubrp	%st, %st(1)
	leal	-108(%ebp), %eax
	movl	%eax, 4(%esp)
	fstps	(%esp)
	call	_ZL4ftolfPl
	movl	_ZL11yres_voxlap, %eax
	movl	-108(%ebp), %edx
	addl	$1, %edx
	movl	%eax, 4(%esp)
	movl	%edx, (%esp)
	call	_ZL7lbound0ll
	movl	%eax, -112(%ebp)
	movl	_ZL11yres_voxlap, %edx
	movl	-108(%ebp), %eax
	movl	%edx, 4(%esp)
	movl	%eax, (%esp)
	call	_ZL7lbound0ll
	movl	%eax, -108(%ebp)
	flds	-40(%ebp)
	flds	.LC31
	faddp	%st, %st(1)
	leal	-120(%ebp), %eax
	movl	%eax, 4(%esp)
	fstps	(%esp)
	call	_ZL4ftolfPl
	movl	-120(%ebp), %eax
	testl	%eax, %eax
	jns	.L773
	movl	$0, -120(%ebp)
.L773:
	movl	-108(%ebp), %eax
	movl	%eax, -144(%ebp)
	fildl	-144(%ebp)
	fsubs	-36(%ebp)
	fabs
	fld1
	faddp	%st, %st(1)
	flds	-88(%ebp)
	fmulp	%st, %st(1)
	fldl	.LC32
	fdivrp	%st, %st(1)
	flds	-40(%ebp)
	faddp	%st, %st(1)
	fstps	-16(%ebp)
	jmp	.L774
.L778:
	movl	-120(%ebp), %eax
	addl	$1, %eax
	movl	%eax, -120(%ebp)
.L774:
	movl	-120(%ebp), %eax
	movl	%eax, -144(%ebp)
	fildl	-144(%ebp)
	flds	-16(%ebp)
	fucomip	%st(1), %st
	fstp	%st(0)
	jbe	.L775
.L879:
	movl	-120(%ebp), %edx
	movl	_ZL11xres_voxlap, %eax
	cmpl	%eax, %edx
	jge	.L775
	movl	$1, %eax
	jmp	.L777
.L775:
	movl	$0, %eax
.L777:
	testb	%al, %al
	jne	.L778
	movl	-120(%ebp), %edx
	movl	_ZL11xres_voxlap, %eax
	cmpl	%eax, %edx
	jge	.L767
	leal	-92(%ebp), %eax
	movl	%eax, 4(%esp)
	movl	-88(%ebp), %eax
	movl	%eax, (%esp)
	call	_ZL4ftolfPl
	jmp	.L779
.L782:
	movl	-120(%ebp), %eax
	movl	%eax, %edx
	sall	$16, %edx
	movl	-104(%ebp), %eax
	subl	%eax, %edx
	movl	-92(%ebp), %eax
	movl	%edx, 4(%esp)
	movl	%eax, (%esp)
	call	_ZL14isshldiv16safell
	testl	%eax, %eax
	setne	%al
	testb	%al, %al
	jne	.L894
.L780:
	movl	-120(%ebp), %eax
	addl	$1, %eax
	movl	%eax, -120(%ebp)
.L779:
	movl	-120(%ebp), %edx
	movl	_ZL11xres_voxlap, %eax
	cmpl	%eax, %edx
	setl	%al
	testb	%al, %al
	jne	.L782
	jmp	.L783
.L894:
	nop
.L891:
	jmp	.L783
.L792:
	movl	-120(%ebp), %eax
	movl	%eax, %edx
	sall	$16, %edx
	movl	-104(%ebp), %eax
	subl	%eax, %edx
	movl	-92(%ebp), %eax
	movl	%edx, 4(%esp)
	movl	%eax, (%esp)
	call	_ZL8shldiv16ll
	movl	%eax, -12(%ebp)
	movl	-112(%ebp), %eax
	movl	%eax, %edx
	sall	$16, %edx
	movl	-100(%ebp), %eax
	subl	%eax, %edx
	movl	-12(%ebp), %eax
	movl	%eax, 4(%esp)
	movl	%edx, (%esp)
	call	_ZL8mulshr16ll
	movl	-96(%ebp), %edx
	addl	%edx, %eax
	movl	%eax, -48(%ebp)
	jmp	.L784
.L787:
	movl	-12(%ebp), %eax
	subl	%eax, -48(%ebp)
	movl	-112(%ebp), %eax
	subl	$1, %eax
	movl	%eax, -112(%ebp)
	movl	-112(%ebp), %eax
	movl	-120(%ebp), %edx
	movl	%edx, _ZL5lastx(,%eax,4)
.L784:
	movl	-112(%ebp), %eax
	testl	%eax, %eax
	jle	.L785
	movl	-48(%ebp), %eax
	cmpl	-12(%ebp), %eax
	jl	.L785
	movl	$1, %eax
	jmp	.L786
.L785:
	movl	$0, %eax
.L786:
	testb	%al, %al
	jne	.L787
	movl	_ZL6uurend, %eax
	movl	-120(%ebp), %edx
	sall	$2, %edx
	addl	%eax, %edx
	movl	-48(%ebp), %eax
	movl	%eax, (%edx)
	movl	_ZL6uurend, %eax
	movl	-120(%ebp), %edx
	addl	$1024, %edx
	sall	$2, %edx
	addl	%eax, %edx
	movl	-12(%ebp), %eax
	movl	%eax, (%edx)
	movl	-108(%ebp), %edx
	movl	-112(%ebp), %eax
	movl	%edx, %ecx
	subl	%eax, %ecx
	movl	%ecx, %eax
	imull	-12(%ebp), %eax
	addl	%eax, -48(%ebp)
	jmp	.L788
.L791:
	movl	-12(%ebp), %eax
	addl	%eax, -48(%ebp)
	movl	-108(%ebp), %eax
	movl	-120(%ebp), %edx
	movl	%edx, _ZL5lastx(,%eax,4)
	addl	$1, %eax
	movl	%eax, -108(%ebp)
.L788:
	movl	-108(%ebp), %edx
	movl	_ZL11yres_voxlap, %eax
	cmpl	%eax, %edx
	jge	.L789
	movl	-124(%ebp), %eax
	cmpl	%eax, -48(%ebp)
	jge	.L789
	movl	$1, %eax
	jmp	.L790
.L789:
	movl	$0, %eax
.L790:
	testb	%al, %al
	jne	.L791
	movl	-120(%ebp), %eax
	addl	$1, %eax
	movl	%eax, -120(%ebp)
.L783:
	movl	-120(%ebp), %edx
	movl	_ZL11xres_voxlap, %eax
	cmpl	%eax, %edx
	setl	%al
	testb	%al, %al
	jne	.L792
	movl	_ZL9giforzsgn, %eax
	testl	%eax, %eax
	jns	.L793
	movl	-112(%ebp), %eax
	movl	%eax, -116(%ebp)
	jmp	.L794
.L795:
	movl	vrend, %eax
	movl	-116(%ebp), %edx
	movl	_ZL5lastx(,%edx,4), %esi
	movl	_ZL11xres_voxlap, %ebx
	movl	-116(%ebp), %ecx
	movl	-116(%ebp), %edx
	movl	_ZL5lastx(,%edx,4), %edx
	movl	$1, 16(%esp)
	movl	%esi, 12(%esp)
	movl	%ebx, 8(%esp)
	movl	%ecx, 4(%esp)
	movl	%edx, (%esp)
	call	*%eax
	movl	-116(%ebp), %eax
	addl	$1, %eax
	movl	%eax, -116(%ebp)
.L794:
	movl	-116(%ebp), %edx
	movl	-108(%ebp), %eax
	cmpl	%eax, %edx
	setl	%al
	testb	%al, %al
	jne	.L795
	jmp	.L767
.L793:
	movl	-112(%ebp), %eax
	movl	%eax, -116(%ebp)
	jmp	.L796
.L797:
	movl	vrend, %eax
	movl	-116(%ebp), %edx
	movl	_ZL5lastx(,%edx,4), %edx
	movl	%edx, %esi
	negl	%esi
	movl	_ZL11xres_voxlap, %ebx
	movl	-116(%ebp), %ecx
	movl	-116(%ebp), %edx
	movl	_ZL5lastx(,%edx,4), %edx
	movl	$-1, 16(%esp)
	movl	%esi, 12(%esp)
	movl	%ebx, 8(%esp)
	movl	%ecx, 4(%esp)
	movl	%edx, (%esp)
	call	*%eax
	movl	-116(%ebp), %eax
	addl	$1, %eax
	movl	%eax, -116(%ebp)
.L796:
	movl	-116(%ebp), %edx
	movl	-108(%ebp), %eax
	cmpl	%eax, %edx
	setl	%al
	testb	%al, %al
	jne	.L797
.L767:
	flds	-68(%ebp)
	fsubs	-60(%ebp)
	movl	vx5+19572, %eax
	movl	%eax, -144(%ebp)
	fildl	-144(%ebp)
	fdivrp	%st, %st(1)
	leal	-124(%ebp), %eax
	movl	%eax, 4(%esp)
	fstps	(%esp)
	call	_ZL4ftolfPl
	flds	-20(%ebp)
	fldz
	fxch	%st(1)
	fucomip	%st(1), %st
	fstp	%st(0)
	jbe	.L798
.L880:
	movl	-124(%ebp), %eax
	testl	%eax, %eax
	jle	.L798
	flds	-68(%ebp)
	fsubs	-60(%ebp)
	movl	-124(%ebp), %eax
	movl	%eax, -144(%ebp)
	fildl	-144(%ebp)
	fdivrp	%st, %st(1)
	fstps	-16(%ebp)
	flds	_ZL3wy1
	fsubs	-36(%ebp)
	fld1
	fdivp	%st, %st(1)
	fstps	_ZL3grd
	movl	radar, %eax
	movl	%eax, _ZL8gscanptr
	movl	$-1, _ZL9skycurlng
	movl	_ZL9giforzsgn, %eax
	movl	%eax, _ZL9skycurdir
	movl	$0, -52(%ebp)
	flds	-16(%ebp)
	flds	.LC7
	fmulp	%st, %st(1)
	fadds	-60(%ebp)
	fstps	-88(%ebp)
	jmp	.L800
.L803:
	movl	_ZL3wy1, %eax
	leal	-108(%ebp), %edx
	movl	%edx, 20(%esp)
	leal	-112(%ebp), %edx
	movl	%edx, 16(%esp)
	movl	%eax, 12(%esp)
	movl	-88(%ebp), %eax
	movl	%eax, 8(%esp)
	movl	-36(%ebp), %eax
	movl	%eax, 4(%esp)
	movl	-40(%ebp), %eax
	movl	%eax, (%esp)
	call	_Z5vlineffffPlS_
	movl	_ZL9giforzsgn, %eax
	testl	%eax, %eax
	jns	.L801
	movl	_ZL8gscanptr, %eax
	movl	-112(%ebp), %edx
	sall	$3, %edx
	negl	%edx
	addl	%eax, %edx
	movl	-52(%ebp), %eax
	movl	%edx, _ZL8angstart(,%eax,4)
	jmp	.L802
.L801:
	movl	_ZL8gscanptr, %eax
	movl	-108(%ebp), %edx
	sall	$3, %edx
	addl	%eax, %edx
	movl	-52(%ebp), %eax
	movl	%edx, _ZL8angstart(,%eax,4)
.L802:
	movl	_ZL8gscanptr, %ecx
	movl	-108(%ebp), %edx
	movl	-112(%ebp), %eax
	movl	%edx, %ebx
	subl	%eax, %ebx
	movl	%ebx, %eax
	movl	%eax, %edx
	sarl	$31, %edx
	xorl	%edx, %eax
	subl	%edx, %eax
	addl	$1, %eax
	sall	$3, %eax
	addl	%ecx, %eax
	movl	%eax, _ZL8gscanptr
	flds	-88(%ebp)
	fadds	-16(%ebp)
	fstps	-88(%ebp)
	addl	$1, -52(%ebp)
.L800:
	movl	-124(%ebp), %eax
	cmpl	%eax, -52(%ebp)
	setl	%al
	testb	%al, %al
	jne	.L803
	movl	-124(%ebp), %eax
	sall	$16, %eax
	movl	%eax, -124(%ebp)
	movl	-124(%ebp), %eax
	movl	%eax, -144(%ebp)
	fildl	-144(%ebp)
	flds	-68(%ebp)
	fsubs	-60(%ebp)
	flds	_ZL3grd
	fmulp	%st, %st(1)
	fdivrp	%st, %st(1)
	fstps	-88(%ebp)
	flds	-40(%ebp)
	fsubs	-60(%ebp)
	flds	_ZL3grd
	fmulp	%st, %st(1)
	fmuls	-88(%ebp)
	leal	-96(%ebp), %eax
	movl	%eax, 4(%esp)
	fstps	(%esp)
	call	_ZL4ftolfPl
	flds	-40(%ebp)
	flds	.LC7
	fsubrp	%st, %st(1)
	leal	-108(%ebp), %eax
	movl	%eax, 4(%esp)
	fstps	(%esp)
	call	_ZL4ftolfPl
	movl	_ZL11xres_voxlap, %eax
	movl	-108(%ebp), %edx
	addl	$1, %edx
	movl	%eax, 4(%esp)
	movl	%edx, (%esp)
	call	_ZL7lbound0ll
	movl	%eax, -112(%ebp)
	movl	_ZL11xres_voxlap, %edx
	movl	-108(%ebp), %eax
	movl	%edx, 4(%esp)
	movl	%eax, (%esp)
	call	_ZL7lbound0ll
	movl	%eax, -108(%ebp)
	flds	-36(%ebp)
	flds	.LC31
	faddp	%st, %st(1)
	leal	-116(%ebp), %eax
	movl	%eax, 4(%esp)
	fstps	(%esp)
	call	_ZL4ftolfPl
	movl	-116(%ebp), %eax
	testl	%eax, %eax
	jns	.L804
	movl	$0, -116(%ebp)
.L804:
	movl	-108(%ebp), %eax
	movl	%eax, -144(%ebp)
	fildl	-144(%ebp)
	fsubs	-40(%ebp)
	fabs
	fld1
	faddp	%st, %st(1)
	flds	-88(%ebp)
	fmulp	%st, %st(1)
	fldl	.LC32
	fdivrp	%st, %st(1)
	flds	-36(%ebp)
	faddp	%st, %st(1)
	fstps	-16(%ebp)
	jmp	.L805
.L809:
	movl	-116(%ebp), %eax
	addl	$1, %eax
	movl	%eax, -116(%ebp)
.L805:
	movl	-116(%ebp), %eax
	movl	%eax, -144(%ebp)
	fildl	-144(%ebp)
	flds	-16(%ebp)
	fucomip	%st(1), %st
	fstp	%st(0)
	jbe	.L806
.L881:
	movl	-116(%ebp), %edx
	movl	_ZL11yres_voxlap, %eax
	cmpl	%eax, %edx
	jge	.L806
	movl	$1, %eax
	jmp	.L808
.L806:
	movl	$0, %eax
.L808:
	testb	%al, %al
	jne	.L809
	movl	-116(%ebp), %edx
	movl	_ZL11yres_voxlap, %eax
	cmpl	%eax, %edx
	jge	.L798
	leal	-92(%ebp), %eax
	movl	%eax, 4(%esp)
	movl	-88(%ebp), %eax
	movl	%eax, (%esp)
	call	_ZL4ftolfPl
	jmp	.L810
.L813:
	movl	-116(%ebp), %eax
	movl	%eax, %edx
	sall	$16, %edx
	movl	-100(%ebp), %eax
	subl	%eax, %edx
	movl	-92(%ebp), %eax
	movl	%edx, 4(%esp)
	movl	%eax, (%esp)
	call	_ZL14isshldiv16safell
	testl	%eax, %eax
	setne	%al
	testb	%al, %al
	jne	.L895
.L811:
	movl	-116(%ebp), %eax
	addl	$1, %eax
	movl	%eax, -116(%ebp)
.L810:
	movl	-116(%ebp), %edx
	movl	_ZL11yres_voxlap, %eax
	cmpl	%eax, %edx
	setl	%al
	testb	%al, %al
	jne	.L813
	jmp	.L812
.L895:
	nop
.L812:
	movl	_ZL9giforzsgn, %eax
	testl	%eax, %eax
	jns	.L814
	movl	-116(%ebp), %eax
	movl	%eax, -52(%ebp)
	jmp	.L816
.L814:
	movl	-116(%ebp), %eax
	negl	%eax
	movl	%eax, -52(%ebp)
	jmp	.L816
.L826:
	movl	-116(%ebp), %eax
	movl	%eax, %edx
	sall	$16, %edx
	movl	-100(%ebp), %eax
	subl	%eax, %edx
	movl	-92(%ebp), %eax
	movl	%edx, 4(%esp)
	movl	%eax, (%esp)
	call	_ZL8shldiv16ll
	movl	%eax, -12(%ebp)
	movl	-112(%ebp), %eax
	movl	%eax, %edx
	sall	$16, %edx
	movl	-104(%ebp), %eax
	subl	%eax, %edx
	movl	-12(%ebp), %eax
	movl	%eax, 4(%esp)
	movl	%edx, (%esp)
	call	_ZL8mulshr16ll
	movl	-96(%ebp), %edx
	addl	%edx, %eax
	movl	%eax, -48(%ebp)
	jmp	.L817
.L820:
	movl	-12(%ebp), %eax
	subl	%eax, -48(%ebp)
	movl	-112(%ebp), %eax
	subl	$1, %eax
	movl	%eax, -112(%ebp)
.L817:
	movl	-112(%ebp), %eax
	testl	%eax, %eax
	jle	.L818
	movl	-48(%ebp), %eax
	cmpl	-12(%ebp), %eax
	jl	.L818
	movl	$1, %eax
	jmp	.L819
.L818:
	movl	$0, %eax
.L819:
	testb	%al, %al
	jne	.L820
	movl	-108(%ebp), %edx
	movl	-112(%ebp), %eax
	movl	%edx, %ecx
	subl	%eax, %ecx
	movl	%ecx, %eax
	movl	%eax, %edx
	imull	-12(%ebp), %edx
	movl	-48(%ebp), %eax
	addl	%edx, %eax
	movl	%eax, -44(%ebp)
	jmp	.L821
.L824:
	movl	-12(%ebp), %eax
	addl	%eax, -44(%ebp)
	movl	-108(%ebp), %eax
	addl	$1, %eax
	movl	%eax, -108(%ebp)
.L821:
	movl	-108(%ebp), %edx
	movl	_ZL11xres_voxlap, %eax
	cmpl	%eax, %edx
	jge	.L822
	movl	-124(%ebp), %eax
	cmpl	%eax, -44(%ebp)
	jge	.L822
	movl	$1, %eax
	jmp	.L823
.L822:
	movl	$0, %eax
.L823:
	testb	%al, %al
	jne	.L824
	movl	-112(%ebp), %edx
	movl	-108(%ebp), %eax
	cmpl	%eax, %edx
	jge	.L825
	movl	hrend, %eax
	movl	-108(%ebp), %ebx
	movl	-116(%ebp), %ecx
	movl	-112(%ebp), %edx
	movl	-52(%ebp), %esi
	movl	%esi, 20(%esp)
	movl	-12(%ebp), %esi
	movl	%esi, 16(%esp)
	movl	-48(%ebp), %esi
	movl	%esi, 12(%esp)
	movl	%ebx, 8(%esp)
	movl	%ecx, 4(%esp)
	movl	%edx, (%esp)
	call	*%eax
.L825:
	movl	-116(%ebp), %eax
	addl	$1, %eax
	movl	%eax, -116(%ebp)
	movl	_ZL9giforzsgn, %eax
	subl	%eax, -52(%ebp)
.L816:
	movl	-116(%ebp), %edx
	movl	_ZL11yres_voxlap, %eax
	cmpl	%eax, %edx
	setl	%al
	testb	%al, %al
	jne	.L826
.L798:
	flds	-56(%ebp)
	fsubs	-80(%ebp)
	movl	vx5+19572, %eax
	movl	%eax, -144(%ebp)
	fildl	-144(%ebp)
	fdivrp	%st, %st(1)
	leal	-124(%ebp), %eax
	movl	%eax, 4(%esp)
	fstps	(%esp)
	call	_ZL4ftolfPl
	fldz
	flds	-32(%ebp)
	fxch	%st(1)
	fucomip	%st(1), %st
	fstp	%st(0)
	jbe	.L685
.L882:
	movl	-124(%ebp), %eax
	testl	%eax, %eax
	jle	.L685
	flds	-56(%ebp)
	fsubs	-80(%ebp)
	movl	-124(%ebp), %eax
	movl	%eax, -144(%ebp)
	fildl	-144(%ebp)
	fdivrp	%st, %st(1)
	fstps	-16(%ebp)
	flds	_ZL3wx0
	fsubs	-40(%ebp)
	fld1
	fdivp	%st, %st(1)
	fstps	_ZL3grd
	movl	radar, %eax
	movl	%eax, _ZL8gscanptr
	movl	$-1, _ZL9skycurlng
	movl	_ZL9giforzsgn, %eax
	movl	%eax, _ZL9skycurdir
	movl	$0, -52(%ebp)
	flds	-16(%ebp)
	flds	.LC7
	fmulp	%st, %st(1)
	fadds	-80(%ebp)
	fstps	-88(%ebp)
	jmp	.L829
.L832:
	movl	_ZL3wx0, %eax
	leal	-108(%ebp), %edx
	movl	%edx, 20(%esp)
	leal	-112(%ebp), %edx
	movl	%edx, 16(%esp)
	movl	-88(%ebp), %edx
	movl	%edx, 12(%esp)
	movl	%eax, 8(%esp)
	movl	-36(%ebp), %eax
	movl	%eax, 4(%esp)
	movl	-40(%ebp), %eax
	movl	%eax, (%esp)
	call	_Z5hlineffffPlS_
	movl	_ZL9giforzsgn, %eax
	testl	%eax, %eax
	jns	.L830
	movl	_ZL8gscanptr, %eax
	movl	-112(%ebp), %edx
	sall	$3, %edx
	addl	%eax, %edx
	movl	-52(%ebp), %eax
	movl	%edx, _ZL8angstart(,%eax,4)
	jmp	.L831
.L830:
	movl	_ZL8gscanptr, %eax
	movl	-108(%ebp), %edx
	sall	$3, %edx
	negl	%edx
	addl	%eax, %edx
	movl	-52(%ebp), %eax
	movl	%edx, _ZL8angstart(,%eax,4)
.L831:
	movl	_ZL8gscanptr, %ecx
	movl	-108(%ebp), %edx
	movl	-112(%ebp), %eax
	movl	%edx, %ebx
	subl	%eax, %ebx
	movl	%ebx, %eax
	movl	%eax, %edx
	sarl	$31, %edx
	xorl	%edx, %eax
	subl	%edx, %eax
	addl	$1, %eax
	sall	$3, %eax
	addl	%ecx, %eax
	movl	%eax, _ZL8gscanptr
	flds	-88(%ebp)
	fadds	-16(%ebp)
	fstps	-88(%ebp)
	addl	$1, -52(%ebp)
.L829:
	movl	-124(%ebp), %eax
	cmpl	%eax, -52(%ebp)
	setl	%al
	testb	%al, %al
	jne	.L832
	movl	-124(%ebp), %eax
	sall	$16, %eax
	movl	%eax, -124(%ebp)
	movl	-124(%ebp), %eax
	movl	%eax, -144(%ebp)
	fildl	-144(%ebp)
	flds	-56(%ebp)
	fsubs	-80(%ebp)
	flds	_ZL3grd
	fmulp	%st, %st(1)
	fdivrp	%st, %st(1)
	fstps	-88(%ebp)
	flds	-36(%ebp)
	fsubs	-80(%ebp)
	flds	_ZL3grd
	fmulp	%st, %st(1)
	fmuls	-88(%ebp)
	leal	-96(%ebp), %eax
	movl	%eax, 4(%esp)
	fstps	(%esp)
	call	_ZL4ftolfPl
	flds	-36(%ebp)
	flds	.LC7
	fsubrp	%st, %st(1)
	leal	-108(%ebp), %eax
	movl	%eax, 4(%esp)
	fstps	(%esp)
	call	_ZL4ftolfPl
	movl	_ZL11yres_voxlap, %eax
	movl	-108(%ebp), %edx
	addl	$1, %edx
	movl	%eax, 4(%esp)
	movl	%edx, (%esp)
	call	_ZL7lbound0ll
	movl	%eax, -112(%ebp)
	movl	_ZL11yres_voxlap, %edx
	movl	-108(%ebp), %eax
	movl	%edx, 4(%esp)
	movl	%eax, (%esp)
	call	_ZL7lbound0ll
	movl	%eax, -108(%ebp)
	flds	-40(%ebp)
	flds	.LC31
	fsubrp	%st, %st(1)
	leal	-120(%ebp), %eax
	movl	%eax, 4(%esp)
	fstps	(%esp)
	call	_ZL4ftolfPl
	movl	-120(%ebp), %edx
	movl	_ZL11xres_voxlap, %eax
	cmpl	%eax, %edx
	jl	.L833
	movl	_ZL11xres_voxlap, %eax
	subl	$1, %eax
	movl	%eax, -120(%ebp)
.L833:
	movl	-108(%ebp), %eax
	movl	%eax, -144(%ebp)
	fildl	-144(%ebp)
	fsubs	-36(%ebp)
	fabs
	fld1
	faddp	%st, %st(1)
	flds	-88(%ebp)
	fmulp	%st, %st(1)
	fldl	.LC32
	fdivrp	%st, %st(1)
	flds	-40(%ebp)
	faddp	%st, %st(1)
	fstps	-16(%ebp)
	jmp	.L834
.L838:
	movl	-120(%ebp), %eax
	subl	$1, %eax
	movl	%eax, -120(%ebp)
.L834:
	movl	-120(%ebp), %eax
	movl	%eax, -144(%ebp)
	fildl	-144(%ebp)
	flds	-16(%ebp)
	fxch	%st(1)
	fucomip	%st(1), %st
	fstp	%st(0)
	jbe	.L835
.L883:
	movl	-120(%ebp), %eax
	testl	%eax, %eax
	js	.L835
	movl	$1, %eax
	jmp	.L837
.L835:
	movl	$0, %eax
.L837:
	testb	%al, %al
	jne	.L838
	movl	-120(%ebp), %eax
	testl	%eax, %eax
	js	.L685
	leal	-92(%ebp), %eax
	movl	%eax, 4(%esp)
	movl	-88(%ebp), %eax
	movl	%eax, (%esp)
	call	_ZL4ftolfPl
	jmp	.L839
.L842:
	movl	-120(%ebp), %eax
	movl	%eax, %edx
	sall	$16, %edx
	movl	-104(%ebp), %eax
	subl	%eax, %edx
	movl	-92(%ebp), %eax
	movl	%edx, 4(%esp)
	movl	%eax, (%esp)
	call	_ZL14isshldiv16safell
	testl	%eax, %eax
	setne	%al
	testb	%al, %al
	jne	.L896
.L840:
	movl	-120(%ebp), %eax
	subl	$1, %eax
	movl	%eax, -120(%ebp)
.L839:
	movl	-120(%ebp), %eax
	notl	%eax
	shrl	$31, %eax
	testb	%al, %al
	jne	.L842
	jmp	.L843
.L896:
	nop
.L892:
	jmp	.L843
.L852:
	movl	-120(%ebp), %eax
	movl	%eax, %edx
	sall	$16, %edx
	movl	-104(%ebp), %eax
	subl	%eax, %edx
	movl	-92(%ebp), %eax
	movl	%edx, 4(%esp)
	movl	%eax, (%esp)
	call	_ZL8shldiv16ll
	movl	%eax, -12(%ebp)
	movl	-112(%ebp), %eax
	movl	%eax, %edx
	sall	$16, %edx
	movl	-100(%ebp), %eax
	subl	%eax, %edx
	movl	-12(%ebp), %eax
	movl	%eax, 4(%esp)
	movl	%edx, (%esp)
	call	_ZL8mulshr16ll
	movl	-96(%ebp), %edx
	addl	%edx, %eax
	movl	%eax, -48(%ebp)
	jmp	.L844
.L847:
	movl	-12(%ebp), %eax
	subl	%eax, -48(%ebp)
	movl	-112(%ebp), %eax
	subl	$1, %eax
	movl	%eax, -112(%ebp)
	movl	-112(%ebp), %eax
	movl	-120(%ebp), %edx
	movl	%edx, _ZL5lastx(,%eax,4)
.L844:
	movl	-112(%ebp), %eax
	testl	%eax, %eax
	jle	.L845
	movl	-48(%ebp), %eax
	cmpl	-12(%ebp), %eax
	jl	.L845
	movl	$1, %eax
	jmp	.L846
.L845:
	movl	$0, %eax
.L846:
	testb	%al, %al
	jne	.L847
	movl	_ZL6uurend, %eax
	movl	-120(%ebp), %edx
	sall	$2, %edx
	addl	%eax, %edx
	movl	-48(%ebp), %eax
	movl	%eax, (%edx)
	movl	_ZL6uurend, %eax
	movl	-120(%ebp), %edx
	addl	$1024, %edx
	sall	$2, %edx
	addl	%eax, %edx
	movl	-12(%ebp), %eax
	movl	%eax, (%edx)
	movl	-108(%ebp), %edx
	movl	-112(%ebp), %eax
	movl	%edx, %ecx
	subl	%eax, %ecx
	movl	%ecx, %eax
	imull	-12(%ebp), %eax
	addl	%eax, -48(%ebp)
	jmp	.L848
.L851:
	movl	-12(%ebp), %eax
	addl	%eax, -48(%ebp)
	movl	-108(%ebp), %eax
	movl	-120(%ebp), %edx
	movl	%edx, _ZL5lastx(,%eax,4)
	addl	$1, %eax
	movl	%eax, -108(%ebp)
.L848:
	movl	-108(%ebp), %edx
	movl	_ZL11yres_voxlap, %eax
	cmpl	%eax, %edx
	jge	.L849
	movl	-124(%ebp), %eax
	cmpl	%eax, -48(%ebp)
	jge	.L849
	movl	$1, %eax
	jmp	.L850
.L849:
	movl	$0, %eax
.L850:
	testb	%al, %al
	jne	.L851
	movl	-120(%ebp), %eax
	subl	$1, %eax
	movl	%eax, -120(%ebp)
.L843:
	movl	-120(%ebp), %eax
	notl	%eax
	shrl	$31, %eax
	testb	%al, %al
	jne	.L852
	movl	-112(%ebp), %eax
	movl	%eax, -116(%ebp)
	jmp	.L853
.L854:
	movl	vrend, %eax
	movl	_ZL9giforzsgn, %ecx
	movl	-116(%ebp), %edx
	movl	_ZL5lastx(,%edx,4), %edx
	leal	1(%edx), %ebx
	movl	-116(%ebp), %edx
	movl	%ecx, 16(%esp)
	movl	$0, 12(%esp)
	movl	%ebx, 8(%esp)
	movl	%edx, 4(%esp)
	movl	$0, (%esp)
	call	*%eax
.LEHE6:
	movl	-116(%ebp), %eax
	addl	$1, %eax
	movl	%eax, -116(%ebp)
.L853:
	movl	-116(%ebp), %edx
	movl	-108(%ebp), %eax
	cmpl	%eax, %edx
	setl	%al
	testb	%al, %al
	jne	.L854
	jmp	.L685
.L857:
	movl	%eax, (%esp)
.LEHB7:
	call	_Unwind_Resume
.LEHE7:
.L685:
	addl	$176, %esp
	popl	%ebx
	.cfi_restore 3
	popl	%esi
	.cfi_restore 6
	popl	%ebp
	.cfi_restore 5
	.cfi_def_cfa 4, 4
	ret
	.cfi_endproc
.LFE66:
	.section	.gcc_except_table
.LLSDA66:
	.byte	0xff
	.byte	0xff
	.byte	0x1
	.uleb128 .LLSDACSE66-.LLSDACSB66
.LLSDACSB66:
	.uleb128 .LEHB6-.LFB66
	.uleb128 .LEHE6-.LEHB6
	.uleb128 .L857-.LFB66
	.uleb128 0
	.uleb128 .LEHB7-.LFB66
	.uleb128 .LEHE7-.LEHB7
	.uleb128 0
	.uleb128 0
.LLSDACSE66:
	.text
	.size	_Z8opticastv, .-_Z8opticastv
	.globl	_Z13setsideshadescccccc
	.type	_Z13setsideshadescccccc, @function
_Z13setsideshadescccccc:
.LFB67:
	.cfi_startproc
	pushl	%ebp
	.cfi_def_cfa_offset 8
	.cfi_offset 5, -8
	movl	%esp, %ebp
	.cfi_def_cfa_register 5
	pushl	%edi
	pushl	%esi
	pushl	%ebx
	subl	$28, %esp
	.cfi_offset 7, -12
	.cfi_offset 6, -16
	.cfi_offset 3, -20
	movl	8(%ebp), %edi
	movl	12(%ebp), %esi
	movl	16(%ebp), %ebx
	movl	20(%ebp), %ecx
	movl	24(%ebp), %edx
	movl	28(%ebp), %eax
	movl	%eax, -40(%ebp)
	movl	%edi, %eax
	movb	%al, -16(%ebp)
	movl	%esi, %eax
	movb	%al, -20(%ebp)
	movb	%bl, -24(%ebp)
	movb	%cl, -28(%ebp)
	movb	%dl, -32(%ebp)
	movzbl	-40(%ebp), %eax
	movb	%al, -36(%ebp)
	movl	$gcsub+23, %eax
	movzbl	-20(%ebp), %edx
	movb	%dl, (%eax)
	movl	$gcsub+31, %eax
	movzbl	-16(%ebp), %edx
	movb	%dl, (%eax)
	movl	$gcsub+39, %eax
	movzbl	-24(%ebp), %edx
	movb	%dl, (%eax)
	movl	$gcsub+47, %eax
	movzbl	-28(%ebp), %edx
	movb	%dl, (%eax)
	movl	$gcsub+55, %eax
	movzbl	-32(%ebp), %edx
	movb	%dl, (%eax)
	movl	$gcsub+63, %eax
	movzbl	-36(%ebp), %edx
	movb	%dl, (%eax)
	movzbl	-20(%ebp), %eax
	movzbl	-16(%ebp), %edx
	orl	%edx, %eax
	orb	-24(%ebp), %al
	orb	-28(%ebp), %al
	orb	-32(%ebp), %al
	orb	-36(%ebp), %al
	testb	%al, %al
	jne	.L899
	movl	$0, vx5+19576
	movl	$gcsub+7, %edx
	movl	$gcsub+15, %eax
	movb	$0, (%eax)
	movzbl	(%eax), %eax
	movb	%al, (%edx)
	jmp	.L898
.L899:
	movl	$1, vx5+19576
.L898:
	addl	$28, %esp
	popl	%ebx
	.cfi_restore 3
	popl	%esi
	.cfi_restore 6
	popl	%edi
	.cfi_restore 7
	popl	%ebp
	.cfi_restore 5
	.cfi_def_cfa 4, 4
	ret
	.cfi_endproc
.LFE67:
	.size	_Z13setsideshadescccccc, .-_Z13setsideshadescccccc
	.local	_ZL6clipit
	.comm	_ZL6clipit,32768,32
	.globl	_Z9findmaxcrdddd
	.type	_Z9findmaxcrdddd, @function
_Z9findmaxcrdddd:
.LFB68:
	.cfi_startproc
	pushl	%ebp
	.cfi_def_cfa_offset 8
	.cfi_offset 5, -8
	movl	%esp, %ebp
	.cfi_def_cfa_register 5
	subl	$136, %esp
	movl	8(%ebp), %eax
	movl	%eax, -96(%ebp)
	movl	12(%ebp), %eax
	movl	%eax, -92(%ebp)
	movl	16(%ebp), %eax
	movl	%eax, -104(%ebp)
	movl	20(%ebp), %eax
	movl	%eax, -100(%ebp)
	movl	24(%ebp), %eax
	movl	%eax, -112(%ebp)
	movl	28(%ebp), %eax
	movl	%eax, -108(%ebp)
	movl	32(%ebp), %eax
	movl	%eax, -120(%ebp)
	movl	36(%ebp), %eax
	movl	%eax, -116(%ebp)
	fldl	-120(%ebp)
	fldl	.LC33
	faddp	%st, %st(1)
	fld1
	faddp	%st, %st(1)
	fstpl	-32(%ebp)
	fldl	-32(%ebp)
	fmull	-32(%ebp)
	fstpl	-32(%ebp)
	fldl	-120(%ebp)
	fmull	-120(%ebp)
	fstpl	-40(%ebp)
	movsd	-96(%ebp), %xmm0
	cvttsd2si	%xmm0, %eax
	movl	%eax, -84(%ebp)
	movsd	-104(%ebp), %xmm0
	cvttsd2si	%xmm0, %eax
	movl	%eax, -80(%ebp)
	movsd	-112(%ebp), %xmm0
	cvttsd2si	%xmm0, %eax
	movl	%eax, -48(%ebp)
	movl	$0, -72(%ebp)
	movl	-72(%ebp), %eax
	movl	%eax, -76(%ebp)
	movl	-84(%ebp), %eax
	movl	%eax, -44(%ebp)
	movl	-80(%ebp), %eax
	movl	%eax, -64(%ebp)
	movl	-64(%ebp), %eax
	movl	%eax, -68(%ebp)
.L933:
	fildl	-84(%ebp)
	fldl	.LC3
	faddp	%st, %st(1)
	fsubl	-96(%ebp)
	fabs
	fldl	.LC3
	fsubrp	%st, %st(1)
	fldz
	fxch	%st(1)
	fucomip	%st(1), %st
	fstp	%st(0)
	jbe	.L941
.L935:
	fildl	-84(%ebp)
	fldl	.LC3
	faddp	%st, %st(1)
	fsubl	-96(%ebp)
	fabs
	fldl	.LC3
	fsubrp	%st, %st(1)
	jmp	.L904
.L941:
	fldz
.L904:
	fstpl	-24(%ebp)
	fildl	-80(%ebp)
	fldl	.LC3
	faddp	%st, %st(1)
	fsubl	-104(%ebp)
	fabs
	fldl	.LC3
	fsubrp	%st, %st(1)
	fldz
	fxch	%st(1)
	fucomip	%st(1), %st
	fstp	%st(0)
	jbe	.L942
.L936:
	fildl	-80(%ebp)
	fldl	.LC3
	faddp	%st, %st(1)
	fsubl	-104(%ebp)
	fabs
	fldl	.LC3
	fsubrp	%st, %st(1)
	jmp	.L907
.L942:
	fldz
.L907:
	fstpl	-16(%ebp)
	fldl	-24(%ebp)
	fmull	-24(%ebp)
	fldl	-16(%ebp)
	fmull	-16(%ebp)
	faddp	%st, %st(1)
	fstpl	-24(%ebp)
	fldl	-40(%ebp)
	fldl	-24(%ebp)
	fxch	%st(1)
	fucomip	%st(1), %st
	fstp	%st(0)
	jbe	.L908
.L937:
	movl	-84(%ebp), %eax
	cmpl	$1023, %eax
	ja	.L910
	movl	-80(%ebp), %eax
	cmpl	$1023, %eax
	jbe	.L911
.L910:
	movl	$0, -56(%ebp)
	movl	-56(%ebp), %eax
	movl	%eax, -60(%ebp)
	jmp	.L912
.L911:
	movl	-80(%ebp), %eax
	movl	%eax, %edx
	sall	$10, %edx
	movl	-84(%ebp), %eax
	addl	%edx, %eax
	movl	sptr(,%eax,4), %eax
	movl	%eax, -52(%ebp)
	movl	-52(%ebp), %eax
	addl	$1, %eax
	movzbl	(%eax), %eax
	movsbl	%al, %eax
	cmpl	-48(%ebp), %eax
	jg	.L913
	jmp	.L917
.L946:
	nop
.L917:
	movl	-52(%ebp), %eax
	movzbl	(%eax), %eax
	testb	%al, %al
	jne	.L914
	movl	$0, -56(%ebp)
	movl	-56(%ebp), %eax
	movl	%eax, -60(%ebp)
	jmp	.L912
.L914:
	movl	-52(%ebp), %eax
	movzbl	(%eax), %eax
	movsbl	%al, %eax
	sall	$2, %eax
	addl	%eax, -52(%ebp)
	movl	-52(%ebp), %eax
	addl	$1, %eax
	movzbl	(%eax), %eax
	movsbl	%al, %eax
	cmpl	-48(%ebp), %eax
	jle	.L946
	movl	-52(%ebp), %eax
	addl	$3, %eax
	movzbl	(%eax), %eax
	movsbl	%al, %eax
	movl	%eax, -60(%ebp)
	movl	-52(%ebp), %eax
	addl	$1, %eax
	movzbl	(%eax), %eax
	movsbl	%al, %eax
	movl	%eax, -56(%ebp)
	nop
	jmp	.L912
.L913:
	movl	$-1792, -60(%ebp)
	movl	-52(%ebp), %eax
	addl	$1, %eax
	movzbl	(%eax), %eax
	movsbl	%al, %eax
	movl	%eax, -56(%ebp)
.L912:
	fildl	-60(%ebp)
	fldl	-112(%ebp)
	fxch	%st(1)
	fucomip	%st(1), %st
	fstp	%st(0)
	jae	.L918
	fildl	-56(%ebp)
	fldl	-112(%ebp)
	fucomip	%st(1), %st
	fstp	%st(0)
	jb	.L943
.L918:
	fldl	-24(%ebp)
	fstpl	-40(%ebp)
	jmp	.L908
.L943:
	fildl	-60(%ebp)
	fldl	-112(%ebp)
	fsubp	%st, %st(1)
	fildl	-56(%ebp)
	fsubl	-112(%ebp)
	fucomip	%st(1), %st
	fstp	%st(0)
	jbe	.L944
.L938:
	fildl	-60(%ebp)
	fldl	-112(%ebp)
	fsubp	%st, %st(1)
	jmp	.L924
.L944:
	fildl	-56(%ebp)
	fsubl	-112(%ebp)
.L924:
	fstpl	-16(%ebp)
	fldl	-16(%ebp)
	fmull	-16(%ebp)
	fldl	-24(%ebp)
	faddp	%st, %st(1)
	fstpl	-24(%ebp)
	fldl	-40(%ebp)
	fldl	-24(%ebp)
	fxch	%st(1)
	fucomip	%st(1), %st
	fstp	%st(0)
	jbe	.L908
.L939:
	fldl	-24(%ebp)
	fstpl	-40(%ebp)
.L908:
	fildl	-84(%ebp)
	fsubl	-96(%ebp)
	fildl	-84(%ebp)
	fsubl	-96(%ebp)
	fmulp	%st, %st(1)
	fildl	-80(%ebp)
	fsubl	-104(%ebp)
	fildl	-80(%ebp)
	fsubl	-104(%ebp)
	fmulp	%st, %st(1)
	faddp	%st, %st(1)
	fldl	-32(%ebp)
	fucomip	%st(1), %st
	fstp	%st(0)
	jbe	.L926
.L940:
	movl	-84(%ebp), %eax
	cmpl	-44(%ebp), %eax
	jg	.L928
	cmpl	$0, -84(%ebp)
	jle	.L928
	movl	-84(%ebp), %eax
	leal	-1(%eax), %edx
	movl	-72(%ebp), %eax
	movl	%edx, _ZL6clipit(,%eax,8)
	movl	-72(%ebp), %eax
	movl	-80(%ebp), %edx
	movl	%edx, _ZL6clipit+4(,%eax,8)
	movl	-72(%ebp), %eax
	addl	$1, %eax
	andl	$4095, %eax
	movl	%eax, -72(%ebp)
.L928:
	movl	-84(%ebp), %eax
	cmpl	-44(%ebp), %eax
	jl	.L929
	cmpl	$1022, -84(%ebp)
	jg	.L929
	movl	-84(%ebp), %eax
	leal	1(%eax), %edx
	movl	-72(%ebp), %eax
	movl	%edx, _ZL6clipit(,%eax,8)
	movl	-72(%ebp), %eax
	movl	-80(%ebp), %edx
	movl	%edx, _ZL6clipit+4(,%eax,8)
	movl	-72(%ebp), %eax
	addl	$1, %eax
	andl	$4095, %eax
	movl	%eax, -72(%ebp)
.L929:
	movl	-80(%ebp), %eax
	cmpl	-68(%ebp), %eax
	jg	.L930
	cmpl	$0, -80(%ebp)
	jle	.L930
	movl	-72(%ebp), %eax
	movl	-84(%ebp), %edx
	movl	%edx, _ZL6clipit(,%eax,8)
	movl	-80(%ebp), %eax
	leal	-1(%eax), %edx
	movl	-72(%ebp), %eax
	movl	%edx, _ZL6clipit+4(,%eax,8)
	movl	-72(%ebp), %eax
	addl	$1, %eax
	andl	$4095, %eax
	movl	%eax, -72(%ebp)
	subl	$1, -68(%ebp)
.L930:
	movl	-80(%ebp), %eax
	cmpl	-64(%ebp), %eax
	jl	.L926
	cmpl	$1022, -80(%ebp)
	jg	.L926
	movl	-72(%ebp), %eax
	movl	-84(%ebp), %edx
	movl	%edx, _ZL6clipit(,%eax,8)
	movl	-80(%ebp), %eax
	leal	1(%eax), %edx
	movl	-72(%ebp), %eax
	movl	%edx, _ZL6clipit+4(,%eax,8)
	movl	-72(%ebp), %eax
	addl	$1, %eax
	andl	$4095, %eax
	movl	%eax, -72(%ebp)
	addl	$1, -64(%ebp)
.L926:
	movl	-76(%ebp), %eax
	cmpl	-72(%ebp), %eax
	je	.L947
.L931:
	movl	-76(%ebp), %eax
	movl	_ZL6clipit(,%eax,8), %eax
	movl	%eax, -84(%ebp)
	movl	-76(%ebp), %eax
	movl	_ZL6clipit+4(,%eax,8), %eax
	movl	%eax, -80(%ebp)
	movl	-76(%ebp), %eax
	addl	$1, %eax
	andl	$4095, %eax
	movl	%eax, -76(%ebp)
	jmp	.L933
.L947:
	nop
.L945:
	fldl	-40(%ebp)
	fstpl	(%esp)
	call	sqrt
	leave
	.cfi_restore 5
	.cfi_def_cfa 4, 4
	ret
	.cfi_endproc
.LFE68:
	.size	_Z9findmaxcrdddd, .-_Z9findmaxcrdddd
	.local	_ZL3gx0
	.comm	_ZL3gx0,8,8
	.local	_ZL3gy0
	.comm	_ZL3gy0,8,8
	.local	_ZL5gcrf2
	.comm	_ZL5gcrf2,8,8
	.local	_ZL5grdst
	.comm	_ZL5grdst,8,8
	.local	_ZL5gendt
	.comm	_ZL5gendt,8,8
	.local	_ZL3gux
	.comm	_ZL3gux,8,8
	.local	_ZL3guy
	.comm	_ZL3guy,8,8
	.type	_ZL12gdist2squaredd, @function
_ZL12gdist2squaredd:
.LFB69:
	.cfi_startproc
	pushl	%ebp
	.cfi_def_cfa_offset 8
	.cfi_offset 5, -8
	movl	%esp, %ebp
	.cfi_def_cfa_register 5
	subl	$32, %esp
	movl	8(%ebp), %eax
	movl	%eax, -24(%ebp)
	movl	12(%ebp), %eax
	movl	%eax, -20(%ebp)
	movl	16(%ebp), %eax
	movl	%eax, -32(%ebp)
	movl	20(%ebp), %eax
	movl	%eax, -28(%ebp)
	fldl	_ZL3gx0
	fldl	-24(%ebp)
	fsubp	%st, %st(1)
	fstpl	-24(%ebp)
	fldl	_ZL3gy0
	fldl	-32(%ebp)
	fsubp	%st, %st(1)
	fstpl	-32(%ebp)
	fldl	_ZL3gux
	fmull	-24(%ebp)
	fldl	_ZL3guy
	fmull	-32(%ebp)
	faddp	%st, %st(1)
	fstpl	-8(%ebp)
	fldz
	fldl	-8(%ebp)
	fxch	%st(1)
	fucomip	%st(1), %st
	fstp	%st(0)
	jb	.L957
.L955:
	fldl	_ZL5gcrf2
	fstpl	-8(%ebp)
	jmp	.L951
.L957:
	fldl	_ZL5grdst
	fmull	-8(%ebp)
	fldl	_ZL5gendt
	fxch	%st(1)
	fucomip	%st(1), %st
	fstp	%st(0)
	jb	.L958
.L956:
	fldl	_ZL3gux
	fldl	_ZL5gendt
	fmulp	%st, %st(1)
	fldl	-24(%ebp)
	fsubp	%st, %st(1)
	fstpl	-24(%ebp)
	fldl	_ZL3guy
	fldl	_ZL5gendt
	fmulp	%st, %st(1)
	fldl	-32(%ebp)
	fsubp	%st, %st(1)
	fstpl	-32(%ebp)
	fldl	_ZL5gcrf2
	fstpl	-8(%ebp)
	jmp	.L951
.L958:
	fldl	-8(%ebp)
	fmull	-8(%ebp)
	fldl	_ZL5grdst
	fmulp	%st, %st(1)
	fldl	_ZL5gcrf2
	faddp	%st, %st(1)
	fstpl	-8(%ebp)
.L951:
	fldl	-24(%ebp)
	fmull	-24(%ebp)
	fldl	-32(%ebp)
	fmull	-32(%ebp)
	faddp	%st, %st(1)
	fldl	-8(%ebp)
	fucomip	%st(1), %st
	fstp	%st(0)
	setae	%al
	movzbl	%al, %eax
	leave
	.cfi_restore 5
	.cfi_def_cfa 4, 4
	ret
	.cfi_endproc
.LFE69:
	.size	_ZL12gdist2squaredd, .-_ZL12gdist2squaredd
	.globl	_Z8sphtraceddddddPdS_S_S_S_S_dd
	.type	_Z8sphtraceddddddPdS_S_S_S_S_dd, @function
_Z8sphtraceddddddPdS_S_S_S_S_dd:
.LFB70:
	.cfi_startproc
	pushl	%ebp
	.cfi_def_cfa_offset 8
	.cfi_offset 5, -8
	movl	%esp, %ebp
	.cfi_def_cfa_register 5
	subl	$456, %esp
	movl	8(%ebp), %eax
	movl	%eax, -320(%ebp)
	movl	12(%ebp), %eax
	movl	%eax, -316(%ebp)
	movl	16(%ebp), %eax
	movl	%eax, -328(%ebp)
	movl	20(%ebp), %eax
	movl	%eax, -324(%ebp)
	movl	24(%ebp), %eax
	movl	%eax, -336(%ebp)
	movl	28(%ebp), %eax
	movl	%eax, -332(%ebp)
	movl	32(%ebp), %eax
	movl	%eax, -344(%ebp)
	movl	36(%ebp), %eax
	movl	%eax, -340(%ebp)
	movl	40(%ebp), %eax
	movl	%eax, -352(%ebp)
	movl	44(%ebp), %eax
	movl	%eax, -348(%ebp)
	movl	48(%ebp), %eax
	movl	%eax, -360(%ebp)
	movl	52(%ebp), %eax
	movl	%eax, -356(%ebp)
	movl	80(%ebp), %eax
	movl	%eax, -368(%ebp)
	movl	84(%ebp), %eax
	movl	%eax, -364(%ebp)
	movl	88(%ebp), %eax
	movl	%eax, -376(%ebp)
	movl	92(%ebp), %eax
	movl	%eax, -372(%ebp)
	fldl	-344(%ebp)
	fldz
	fucomip	%st(1), %st
	jp	.L1083
	fldz
	fucomip	%st(1), %st
	fstp	%st(0)
	jne	.L960
.L1056:
	fldl	-352(%ebp)
	fldz
	fucomip	%st(1), %st
	jp	.L1084
	fldz
	fucomip	%st(1), %st
	fstp	%st(0)
	jne	.L960
.L1057:
	fldl	-360(%ebp)
	fldz
	fucomip	%st(1), %st
	jp	.L1085
	fldz
	fucomip	%st(1), %st
	fstp	%st(0)
	jne	.L960
.L1058:
	movl	56(%ebp), %eax
	fldl	-320(%ebp)
	fstpl	(%eax)
	movl	60(%ebp), %eax
	fldl	-328(%ebp)
	fstpl	(%eax)
	movl	64(%ebp), %eax
	fldl	-336(%ebp)
	fstpl	(%eax)
	movl	$1, %eax
	jmp	.L1055
.L1083:
	fstp	%st(0)
	jmp	.L960
.L1084:
	fstp	%st(0)
	jmp	.L960
.L1085:
	fstp	%st(0)
.L960:
	fldl	-344(%ebp)
	fstpl	_ZL3gux
	fldl	-352(%ebp)
	fstpl	_ZL3guy
	fldl	-320(%ebp)
	fstpl	_ZL3gx0
	fldl	-328(%ebp)
	fstpl	_ZL3gy0
	fldl	-344(%ebp)
	fldl	-344(%ebp)
	fmulp	%st, %st(1)
	fldl	-352(%ebp)
	fldl	-352(%ebp)
	fmulp	%st, %st(1)
	faddp	%st, %st(1)
	fstpl	-176(%ebp)
	fldl	-176(%ebp)
	fldz
	fucomip	%st(1), %st
	jp	.L1086
	fldz
	fucomip	%st(1), %st
	fstp	%st(0)
	je	.L1070
	jmp	.L1059
.L1086:
	fstp	%st(0)
.L1059:
	fldl	-176(%ebp)
	fld1
	fdivp	%st, %st(1)
	fstpl	-80(%ebp)
	jmp	.L967
.L1070:
	fldz
	fstpl	-80(%ebp)
.L967:
	fldl	-80(%ebp)
	fstpl	_ZL5grdst
	fld1
	fstpl	_ZL5gendt
	fldl	-368(%ebp)
	fmull	-368(%ebp)
	fstpl	-56(%ebp)
	fldl	-368(%ebp)
	fldl	.LC35
	faddp	%st, %st(1)
	fstpl	-248(%ebp)
	fldl	-248(%ebp)
	fldl	-248(%ebp)
	fmulp	%st, %st(1)
	fstpl	_ZL5gcrf2
	leal	-360(%ebp), %eax
	addl	$4, %eax
	movl	(%eax), %eax
	testl	%eax, %eax
	js	.L968
	fldl	-336(%ebp)
	fsubl	-368(%ebp)
	fldl	.LC3
	fsubrp	%st, %st(1)
	leal	-292(%ebp), %eax
	movl	%eax, 8(%esp)
	fstpl	(%esp)
	call	_ZL4dtoldPl
	fldl	-360(%ebp)
	faddl	-336(%ebp)
	faddl	-368(%ebp)
	fldl	.LC3
	fsubrp	%st, %st(1)
	leal	-288(%ebp), %eax
	movl	%eax, 8(%esp)
	fstpl	(%esp)
	call	_ZL4dtoldPl
	jmp	.L969
.L968:
	fldl	-360(%ebp)
	faddl	-336(%ebp)
	fsubl	-368(%ebp)
	fldl	.LC3
	fsubrp	%st, %st(1)
	leal	-292(%ebp), %eax
	movl	%eax, 8(%esp)
	fstpl	(%esp)
	call	_ZL4dtoldPl
	fldl	-336(%ebp)
	faddl	-368(%ebp)
	fldl	.LC3
	fsubrp	%st, %st(1)
	leal	-288(%ebp), %eax
	movl	%eax, 8(%esp)
	fstpl	(%esp)
	call	_ZL4dtoldPl
.L969:
	fldz
	fstpl	-152(%ebp)
	fldz
	fstpl	-144(%ebp)
	fldz
	fstpl	-128(%ebp)
	fldz
	fstpl	-120(%ebp)
	fldz
	fstpl	-96(%ebp)
	fldz
	fstpl	-112(%ebp)
	fldz
	fstpl	-104(%ebp)
	fldl	-344(%ebp)
	fldz
	fucomip	%st(1), %st
	jp	.L1087
	fldz
	fucomip	%st(1), %st
	fstp	%st(0)
	je	.L970
	jmp	.L1060
.L1087:
	fstp	%st(0)
.L1060:
	fldl	-352(%ebp)
	fldl	-344(%ebp)
	fdivrp	%st, %st(1)
	fstpl	-128(%ebp)
	leal	-344(%ebp), %eax
	addl	$4, %eax
	movl	(%eax), %eax
	testl	%eax, %eax
	js	.L972
	fldl	-320(%ebp)
	faddl	-368(%ebp)
	fstpl	-152(%ebp)
	jmp	.L970
.L972:
	fldl	-320(%ebp)
	fsubl	-368(%ebp)
	fld1
	fsubrp	%st, %st(1)
	fstpl	-152(%ebp)
.L970:
	fldl	-352(%ebp)
	fldz
	fucomip	%st(1), %st
	jp	.L1088
	fldz
	fucomip	%st(1), %st
	fstp	%st(0)
	je	.L973
	jmp	.L1061
.L1088:
	fstp	%st(0)
.L1061:
	fldl	-344(%ebp)
	fldl	-352(%ebp)
	fdivrp	%st, %st(1)
	fstpl	-120(%ebp)
	leal	-352(%ebp), %eax
	addl	$4, %eax
	movl	(%eax), %eax
	testl	%eax, %eax
	js	.L975
	fldl	-328(%ebp)
	faddl	-368(%ebp)
	fstpl	-144(%ebp)
	jmp	.L973
.L975:
	fldl	-328(%ebp)
	fsubl	-368(%ebp)
	fld1
	fsubrp	%st, %st(1)
	fstpl	-144(%ebp)
.L973:
	fldl	-360(%ebp)
	fldz
	fucomip	%st(1), %st
	jp	.L1089
	fldz
	fucomip	%st(1), %st
	fstp	%st(0)
	je	.L976
	jmp	.L1062
.L1089:
	fstp	%st(0)
.L1062:
	fldl	-360(%ebp)
	fld1
	fdivp	%st, %st(1)
	fstpl	-96(%ebp)
	fldl	-344(%ebp)
	fmull	-96(%ebp)
	fstpl	-112(%ebp)
	fldl	-352(%ebp)
	fmull	-96(%ebp)
	fstpl	-104(%ebp)
	leal	-360(%ebp), %eax
	addl	$4, %eax
	movl	(%eax), %eax
	testl	%eax, %eax
	js	.L978
	fldl	-336(%ebp)
	faddl	-368(%ebp)
	fstpl	-136(%ebp)
	jmp	.L976
.L978:
	fldl	-336(%ebp)
	fsubl	-368(%ebp)
	fstpl	-136(%ebp)
.L976:
	fldl	-360(%ebp)
	fldl	-360(%ebp)
	fmulp	%st, %st(1)
	fstpl	-48(%ebp)
	fldl	-344(%ebp)
	fldl	-344(%ebp)
	fmulp	%st, %st(1)
	faddl	-48(%ebp)
	fstpl	-168(%ebp)
	fldl	-168(%ebp)
	fldz
	fucomip	%st(1), %st
	jp	.L1090
	fldz
	fucomip	%st(1), %st
	fstp	%st(0)
	je	.L979
	jmp	.L1063
.L1090:
	fstp	%st(0)
.L1063:
	fldl	-168(%ebp)
	fld1
	fdivp	%st, %st(1)
	fstpl	-72(%ebp)
.L979:
	fldl	-352(%ebp)
	fldl	-352(%ebp)
	fmulp	%st, %st(1)
	faddl	-48(%ebp)
	fstpl	-160(%ebp)
	fldl	-160(%ebp)
	fldz
	fucomip	%st(1), %st
	jp	.L1091
	fldz
	fucomip	%st(1), %st
	fstp	%st(0)
	je	.L981
	jmp	.L1064
.L1091:
	fstp	%st(0)
.L1064:
	fldl	-160(%ebp)
	fld1
	fdivp	%st, %st(1)
	fstpl	-64(%ebp)
.L981:
	fldl	-176(%ebp)
	fldl	-48(%ebp)
	faddp	%st, %st(1)
	fstpl	-48(%ebp)
	fld1
	fdivl	-48(%ebp)
	fstpl	-40(%ebp)
	fldl	-320(%ebp)
	fldl	.LC3
	fsubrp	%st, %st(1)
	leal	-300(%ebp), %eax
	movl	%eax, 8(%esp)
	fstpl	(%esp)
	call	_ZL4dtoldPl
	fldl	-328(%ebp)
	fldl	.LC3
	fsubrp	%st, %st(1)
	leal	-296(%ebp), %eax
	movl	%eax, 8(%esp)
	fstpl	(%esp)
	call	_ZL4dtoldPl
	movl	-300(%ebp), %eax
	movl	%eax, -260(%ebp)
	movl	-296(%ebp), %eax
	movl	%eax, -276(%ebp)
	movl	-276(%ebp), %eax
	movl	%eax, -280(%ebp)
	movl	$0, -272(%ebp)
	movl	-300(%ebp), %eax
	movl	%eax, _ZL6clipit
	movl	-296(%ebp), %eax
	movl	%eax, _ZL6clipit+4
	movl	$1, -268(%ebp)
.L1052:
	movl	-272(%ebp), %eax
	movl	_ZL6clipit(,%eax,8), %eax
	movl	%eax, -300(%ebp)
	movl	-272(%ebp), %eax
	movl	_ZL6clipit+4(,%eax,8), %eax
	movl	%eax, -296(%ebp)
	movl	-272(%ebp), %eax
	addl	$1, %eax
	andl	$4095, %eax
	movl	%eax, -272(%ebp)
	movl	-300(%ebp), %eax
	movl	%eax, -380(%ebp)
	fildl	-380(%ebp)
	fstpl	-240(%ebp)
	movl	-300(%ebp), %eax
	addl	$1, %eax
	movl	%eax, -380(%ebp)
	fildl	-380(%ebp)
	fstpl	-224(%ebp)
	movl	-296(%ebp), %eax
	movl	%eax, -380(%ebp)
	fildl	-380(%ebp)
	fstpl	-232(%ebp)
	movl	-296(%ebp), %eax
	addl	$1, %eax
	movl	%eax, -380(%ebp)
	fildl	-380(%ebp)
	fstpl	-216(%ebp)
	fldl	-232(%ebp)
	fsubl	-144(%ebp)
	fmull	-120(%ebp)
	faddl	-320(%ebp)
	fstpl	-192(%ebp)
	fldl	-240(%ebp)
	fsubl	-152(%ebp)
	fmull	-128(%ebp)
	faddl	-328(%ebp)
	fstpl	-184(%ebp)
	leal	-192(%ebp), %eax
	addl	$4, %eax
	movl	(%eax), %edx
	leal	-240(%ebp), %eax
	addl	$4, %eax
	movl	(%eax), %eax
	cmpl	%eax, %edx
	jge	.L983
	fldl	-240(%ebp)
	fstpl	-192(%ebp)
.L983:
	leal	-184(%ebp), %eax
	addl	$4, %eax
	movl	(%eax), %edx
	leal	-232(%ebp), %eax
	addl	$4, %eax
	movl	(%eax), %eax
	cmpl	%eax, %edx
	jge	.L984
	fldl	-232(%ebp)
	fstpl	-184(%ebp)
.L984:
	leal	-192(%ebp), %eax
	addl	$4, %eax
	movl	(%eax), %edx
	leal	-224(%ebp), %eax
	addl	$4, %eax
	movl	(%eax), %eax
	cmpl	%eax, %edx
	jl	.L985
	fldl	-224(%ebp)
	fstpl	-192(%ebp)
.L985:
	leal	-184(%ebp), %eax
	addl	$4, %eax
	movl	(%eax), %edx
	leal	-216(%ebp), %eax
	addl	$4, %eax
	movl	(%eax), %eax
	cmpl	%eax, %edx
	jl	.L986
	fldl	-216(%ebp)
	fstpl	-184(%ebp)
.L986:
	leal	-176(%ebp), %eax
	addl	$4, %eax
	movl	(%eax), %eax
	testl	%eax, %eax
	jne	.L987
	fld1
	fchs
	fstpl	-248(%ebp)
	jmp	.L988
.L987:
	fldl	-192(%ebp)
	fsubl	-320(%ebp)
	fstpl	-208(%ebp)
	fldl	-184(%ebp)
	fsubl	-328(%ebp)
	fstpl	-200(%ebp)
	fldl	-344(%ebp)
	fldl	-208(%ebp)
	fmulp	%st, %st(1)
	fldl	-352(%ebp)
	fldl	-200(%ebp)
	fmulp	%st, %st(1)
	faddp	%st, %st(1)
	fstpl	-248(%ebp)
	leal	-248(%ebp), %eax
	addl	$4, %eax
	movl	(%eax), %eax
	testl	%eax, %eax
	js	.L1074
.L989:
	fldl	-208(%ebp)
	fldl	-208(%ebp)
	fmulp	%st, %st(1)
	fldl	-56(%ebp)
	fsubp	%st, %st(1)
	fldl	-200(%ebp)
	fldl	-200(%ebp)
	fmulp	%st, %st(1)
	fsubrp	%st, %st(1)
	fstpl	-256(%ebp)
	leal	-256(%ebp), %eax
	addl	$4, %eax
	movl	(%eax), %eax
	testl	%eax, %eax
	js	.L990
	fld1
	fchs
	fstpl	-248(%ebp)
	jmp	.L988
.L990:
	fldl	-256(%ebp)
	fldl	-176(%ebp)
	fmulp	%st, %st(1)
	fldl	-248(%ebp)
	fldl	-248(%ebp)
	fmulp	%st, %st(1)
	faddp	%st, %st(1)
	fstpl	-256(%ebp)
	leal	-256(%ebp), %eax
	addl	$4, %eax
	movl	(%eax), %eax
	testl	%eax, %eax
	jns	.L991
	fld1
	fchs
	fstpl	-248(%ebp)
	jmp	.L988
.L991:
	fldl	-248(%ebp)
	fstpl	-392(%ebp)
	fldl	-256(%ebp)
	fstpl	(%esp)
	call	sqrt
	fsubrl	-392(%ebp)
	fmull	-80(%ebp)
	fstpl	-248(%ebp)
	jmp	.L988
.L1074:
	nop
.L988:
	fldl	-248(%ebp)
	fldl	_ZL5gendt
	fxch	%st(1)
	fucomip	%st(1), %st
	fstp	%st(0)
	jae	.L1075
	leal	-248(%ebp), %eax
	addl	$4, %eax
	movl	(%eax), %eax
	testl	%eax, %eax
	jns	.L995
	fldl	-336(%ebp)
	fstpl	-88(%ebp)
	jmp	.L996
.L995:
	fldl	-360(%ebp)
	fldl	-248(%ebp)
	fmulp	%st, %st(1)
	faddl	-336(%ebp)
	fstpl	-88(%ebp)
.L996:
	fldl	-88(%ebp)
	fldl	.LC3
	fsubrp	%st, %st(1)
	leal	-304(%ebp), %eax
	movl	%eax, 8(%esp)
	fstpl	(%esp)
	call	_ZL4dtoldPl
	movl	-300(%ebp), %edx
	movl	-296(%ebp), %eax
	orl	%edx, %eax
	cmpl	$1023, %eax
	ja	.L997
	movl	-296(%ebp), %eax
	movl	%eax, %edx
	sall	$10, %edx
	movl	-300(%ebp), %eax
	addl	%edx, %eax
	movl	sptr(,%eax,4), %eax
	movl	%eax, -264(%ebp)
	movl	$-1792, -16(%ebp)
	movl	-264(%ebp), %eax
	addl	$1, %eax
	movzbl	(%eax), %eax
	movsbl	%al, %eax
	movl	%eax, -12(%ebp)
	jmp	.L998
.L1002:
	movl	-264(%ebp), %eax
	movzbl	(%eax), %eax
	testb	%al, %al
	jne	.L999
	movl	$-1, -12(%ebp)
	jmp	.L1003
.L999:
	movl	-264(%ebp), %eax
	movzbl	(%eax), %eax
	movsbl	%al, %eax
	sall	$2, %eax
	addl	%eax, -264(%ebp)
	movl	-264(%ebp), %eax
	addl	$3, %eax
	movzbl	(%eax), %eax
	movsbl	%al, %eax
	movl	%eax, -16(%ebp)
	movl	-16(%ebp), %edx
	movl	-304(%ebp), %eax
	cmpl	%eax, %edx
	jle	.L1001
	movl	$-1, -12(%ebp)
	nop
	jmp	.L1003
.L1001:
	movl	-264(%ebp), %eax
	addl	$1, %eax
	movzbl	(%eax), %eax
	movsbl	%al, %eax
	movl	%eax, -12(%ebp)
.L998:
	movl	-12(%ebp), %edx
	movl	-304(%ebp), %eax
	cmpl	%eax, %edx
	setle	%al
	testb	%al, %al
	jne	.L1002
	jmp	.L1003
.L997:
	movl	$-1, -12(%ebp)
.L1003:
	movl	-12(%ebp), %eax
	testl	%eax, %eax
	jns	.L1004
	leal	-248(%ebp), %eax
	addl	$4, %eax
	movl	(%eax), %eax
	testl	%eax, %eax
	js	.L1004
	fldl	-248(%ebp)
	fstpl	_ZL5gendt
	fldl	-192(%ebp)
	movl	68(%ebp), %eax
	fstpl	(%eax)
	fldl	-184(%ebp)
	movl	72(%ebp), %eax
	fstpl	(%eax)
	movl	76(%ebp), %eax
	fldl	-88(%ebp)
	fstpl	(%eax)
	jmp	.L994
.L1004:
	movl	$1, -304(%ebp)
	jmp	.L1005
.L1039:
	movl	-304(%ebp), %eax
	movl	-16(%ebp,%eax,4), %edx
	movl	-292(%ebp), %eax
	cmpl	%eax, %edx
	jl	.L1076
	movl	-304(%ebp), %eax
	movl	-16(%ebp,%eax,4), %edx
	movl	-288(%ebp), %eax
	cmpl	%eax, %edx
	jg	.L1076
.L1007:
	movl	-304(%ebp), %eax
	movl	-16(%ebp,%eax,4), %eax
	movl	%eax, -380(%ebp)
	fildl	-380(%ebp)
	fstpl	-88(%ebp)
	fldl	-88(%ebp)
	fsubl	-136(%ebp)
	fstpl	-248(%ebp)
	fldl	-248(%ebp)
	fmull	-112(%ebp)
	faddl	-320(%ebp)
	fstpl	-192(%ebp)
	fldl	-248(%ebp)
	fmull	-104(%ebp)
	faddl	-328(%ebp)
	fstpl	-184(%ebp)
	movl	$0, -284(%ebp)
	leal	-192(%ebp), %eax
	addl	$4, %eax
	movl	(%eax), %edx
	leal	-240(%ebp), %eax
	addl	$4, %eax
	movl	(%eax), %eax
	cmpl	%eax, %edx
	jge	.L1009
	orl	$2, -284(%ebp)
	jmp	.L1010
.L1009:
	leal	-192(%ebp), %eax
	addl	$4, %eax
	movl	(%eax), %edx
	leal	-224(%ebp), %eax
	addl	$4, %eax
	movl	(%eax), %eax
	cmpl	%eax, %edx
	jl	.L1010
	orl	$1, -284(%ebp)
.L1010:
	leal	-184(%ebp), %eax
	addl	$4, %eax
	movl	(%eax), %edx
	leal	-232(%ebp), %eax
	addl	$4, %eax
	movl	(%eax), %eax
	cmpl	%eax, %edx
	jge	.L1011
	orl	$8, -284(%ebp)
	jmp	.L1012
.L1011:
	leal	-184(%ebp), %eax
	addl	$4, %eax
	movl	(%eax), %edx
	leal	-216(%ebp), %eax
	addl	$4, %eax
	movl	(%eax), %eax
	cmpl	%eax, %edx
	jl	.L1012
	orl	$4, -284(%ebp)
.L1012:
	cmpl	$0, -284(%ebp)
	jne	.L1013
	fldl	-360(%ebp)
	fldz
	fucomip	%st(1), %st
	jp	.L1092
	fldz
	fucomip	%st(1), %st
	fstp	%st(0)
	je	.L1013
	jmp	.L1065
.L1092:
	fstp	%st(0)
.L1065:
	fldl	-248(%ebp)
	fmull	-96(%ebp)
	fstpl	-248(%ebp)
	leal	-248(%ebp), %eax
	addl	$4, %eax
	movl	(%eax), %eax
	testl	%eax, %eax
	js	.L1077
	fldl	-248(%ebp)
	fldl	_ZL5gendt
	fucomip	%st(1), %st
	fstp	%st(0)
	jbe	.L1071
.L1066:
	fldl	-248(%ebp)
	fstpl	_ZL5gendt
	fldl	-192(%ebp)
	movl	68(%ebp), %eax
	fstpl	(%eax)
	fldl	-184(%ebp)
	movl	72(%ebp), %eax
	fstpl	(%eax)
	movl	76(%ebp), %eax
	fldl	-88(%ebp)
	fstpl	(%eax)
	jmp	.L1077
.L1071:
	jmp	.L1077
.L1013:
	fldl	-88(%ebp)
	fsubl	-336(%ebp)
	fstpl	-32(%ebp)
	fldl	-32(%ebp)
	fmull	-32(%ebp)
	fldl	-56(%ebp)
	fsubp	%st, %st(1)
	fstpl	-24(%ebp)
	fldl	-360(%ebp)
	fldl	-32(%ebp)
	fmulp	%st, %st(1)
	fstpl	-32(%ebp)
	movl	-284(%ebp), %eax
	andl	$3, %eax
	testl	%eax, %eax
	je	.L1017
	movl	-284(%ebp), %eax
	movl	%eax, %edx
	andl	$1, %edx
	movl	-300(%ebp), %eax
	addl	%edx, %eax
	movl	%eax, -380(%ebp)
	fildl	-380(%ebp)
	fstpl	-208(%ebp)
	leal	-168(%ebp), %eax
	addl	$4, %eax
	movl	(%eax), %eax
	testl	%eax, %eax
	je	.L1018
	fldl	-208(%ebp)
	fsubl	-320(%ebp)
	fstpl	-256(%ebp)
	fldl	-344(%ebp)
	fldl	-256(%ebp)
	fmulp	%st, %st(1)
	faddl	-32(%ebp)
	fstpl	-248(%ebp)
	fldl	-256(%ebp)
	fldl	-256(%ebp)
	fmulp	%st, %st(1)
	fldl	-24(%ebp)
	fsubp	%st, %st(1)
	fldl	-168(%ebp)
	fmulp	%st, %st(1)
	fldl	-248(%ebp)
	fldl	-248(%ebp)
	fmulp	%st, %st(1)
	faddp	%st, %st(1)
	fstpl	-256(%ebp)
	leal	-256(%ebp), %eax
	addl	$4, %eax
	movl	(%eax), %eax
	testl	%eax, %eax
	js	.L1019
	fldl	-248(%ebp)
	fstpl	-400(%ebp)
	fldl	-256(%ebp)
	fstpl	(%esp)
	call	sqrt
	fsubrl	-400(%ebp)
	fmull	-72(%ebp)
	fstpl	-248(%ebp)
	jmp	.L1020
.L1019:
	fld1
	fchs
	fstpl	-248(%ebp)
	jmp	.L1020
.L1018:
	fld1
	fchs
	fstpl	-248(%ebp)
.L1020:
	fldl	-352(%ebp)
	fldl	-248(%ebp)
	fmulp	%st, %st(1)
	faddl	-328(%ebp)
	fstpl	-200(%ebp)
	leal	-200(%ebp), %eax
	addl	$4, %eax
	movl	(%eax), %edx
	leal	-216(%ebp), %eax
	addl	$4, %eax
	movl	(%eax), %eax
	cmpl	%eax, %edx
	jle	.L1021
	orl	$16, -284(%ebp)
	jmp	.L1022
.L1021:
	leal	-200(%ebp), %eax
	addl	$4, %eax
	movl	(%eax), %edx
	leal	-232(%ebp), %eax
	addl	$4, %eax
	movl	(%eax), %eax
	cmpl	%eax, %edx
	jl	.L1022
	leal	-248(%ebp), %eax
	addl	$4, %eax
	movl	(%eax), %eax
	testl	%eax, %eax
	js	.L1078
	fldl	-248(%ebp)
	fldl	_ZL5gendt
	fucomip	%st(1), %st
	fstp	%st(0)
	jbe	.L1072
.L1067:
	fldl	-248(%ebp)
	fstpl	_ZL5gendt
	fldl	-208(%ebp)
	movl	68(%ebp), %eax
	fstpl	(%eax)
	fldl	-200(%ebp)
	movl	72(%ebp), %eax
	fstpl	(%eax)
	movl	76(%ebp), %eax
	fldl	-88(%ebp)
	fstpl	(%eax)
	jmp	.L1078
.L1072:
	jmp	.L1078
.L1022:
	movl	-284(%ebp), %eax
	sarl	$4, %eax
	movl	%eax, %edx
	andl	$1, %edx
	movl	-296(%ebp), %eax
	addl	%edx, %eax
	movl	%eax, -380(%ebp)
	fildl	-380(%ebp)
	fstpl	-184(%ebp)
	jmp	.L1025
.L1017:
	movl	-284(%ebp), %eax
	sarl	$2, %eax
	movl	%eax, %edx
	andl	$1, %edx
	movl	-296(%ebp), %eax
	addl	%edx, %eax
	movl	%eax, -380(%ebp)
	fildl	-380(%ebp)
	fstpl	-184(%ebp)
.L1025:
	movl	-284(%ebp), %eax
	andl	$12, %eax
	testl	%eax, %eax
	je	.L1026
	movl	-284(%ebp), %eax
	sarl	$2, %eax
	movl	%eax, %edx
	andl	$1, %edx
	movl	-296(%ebp), %eax
	addl	%edx, %eax
	movl	%eax, -380(%ebp)
	fildl	-380(%ebp)
	fstpl	-200(%ebp)
	leal	-160(%ebp), %eax
	addl	$4, %eax
	movl	(%eax), %eax
	testl	%eax, %eax
	je	.L1027
	fldl	-200(%ebp)
	fsubl	-328(%ebp)
	fstpl	-256(%ebp)
	fldl	-352(%ebp)
	fldl	-256(%ebp)
	fmulp	%st, %st(1)
	faddl	-32(%ebp)
	fstpl	-248(%ebp)
	fldl	-256(%ebp)
	fldl	-256(%ebp)
	fmulp	%st, %st(1)
	fldl	-24(%ebp)
	fsubp	%st, %st(1)
	fldl	-160(%ebp)
	fmulp	%st, %st(1)
	fldl	-248(%ebp)
	fldl	-248(%ebp)
	fmulp	%st, %st(1)
	faddp	%st, %st(1)
	fstpl	-256(%ebp)
	leal	-256(%ebp), %eax
	addl	$4, %eax
	movl	(%eax), %eax
	testl	%eax, %eax
	js	.L1028
	fldl	-248(%ebp)
	fstpl	-408(%ebp)
	fldl	-256(%ebp)
	fstpl	(%esp)
	call	sqrt
	fsubrl	-408(%ebp)
	fmull	-64(%ebp)
	fstpl	-248(%ebp)
	jmp	.L1029
.L1028:
	fld1
	fchs
	fstpl	-248(%ebp)
	jmp	.L1029
.L1027:
	fld1
	fchs
	fstpl	-248(%ebp)
.L1029:
	fldl	-344(%ebp)
	fldl	-248(%ebp)
	fmulp	%st, %st(1)
	faddl	-320(%ebp)
	fstpl	-208(%ebp)
	leal	-208(%ebp), %eax
	addl	$4, %eax
	movl	(%eax), %edx
	leal	-224(%ebp), %eax
	addl	$4, %eax
	movl	(%eax), %eax
	cmpl	%eax, %edx
	jle	.L1030
	orl	$32, -284(%ebp)
	jmp	.L1031
.L1030:
	leal	-208(%ebp), %eax
	addl	$4, %eax
	movl	(%eax), %edx
	leal	-240(%ebp), %eax
	addl	$4, %eax
	movl	(%eax), %eax
	cmpl	%eax, %edx
	jl	.L1031
	leal	-248(%ebp), %eax
	addl	$4, %eax
	movl	(%eax), %eax
	testl	%eax, %eax
	js	.L1079
	fldl	-248(%ebp)
	fldl	_ZL5gendt
	fucomip	%st(1), %st
	fstp	%st(0)
	jbe	.L1073
.L1068:
	fldl	-248(%ebp)
	fstpl	_ZL5gendt
	fldl	-208(%ebp)
	movl	68(%ebp), %eax
	fstpl	(%eax)
	fldl	-200(%ebp)
	movl	72(%ebp), %eax
	fstpl	(%eax)
	movl	76(%ebp), %eax
	fldl	-88(%ebp)
	fstpl	(%eax)
	jmp	.L1079
.L1073:
	jmp	.L1079
.L1031:
	movl	-284(%ebp), %eax
	sarl	$5, %eax
	movl	%eax, %edx
	andl	$1, %edx
	movl	-300(%ebp), %eax
	addl	%edx, %eax
	movl	%eax, -380(%ebp)
	fildl	-380(%ebp)
	fstpl	-192(%ebp)
	jmp	.L1034
.L1026:
	movl	-284(%ebp), %eax
	movl	%eax, %edx
	andl	$1, %edx
	movl	-300(%ebp), %eax
	addl	%edx, %eax
	movl	%eax, -380(%ebp)
	fildl	-380(%ebp)
	fstpl	-192(%ebp)
.L1034:
	fldl	-192(%ebp)
	fsubl	-320(%ebp)
	fstpl	-208(%ebp)
	fldl	-184(%ebp)
	fsubl	-328(%ebp)
	fstpl	-200(%ebp)
	fldl	-344(%ebp)
	fldl	-208(%ebp)
	fmulp	%st, %st(1)
	fldl	-352(%ebp)
	fldl	-200(%ebp)
	fmulp	%st, %st(1)
	faddp	%st, %st(1)
	faddl	-32(%ebp)
	fstpl	-248(%ebp)
	leal	-248(%ebp), %eax
	addl	$4, %eax
	movl	(%eax), %eax
	testl	%eax, %eax
	js	.L1080
.L1035:
	fldl	-208(%ebp)
	fldl	-208(%ebp)
	fmulp	%st, %st(1)
	fldl	-24(%ebp)
	fsubp	%st, %st(1)
	fldl	-200(%ebp)
	fldl	-200(%ebp)
	fmulp	%st, %st(1)
	fsubrp	%st, %st(1)
	fstpl	-256(%ebp)
	leal	-256(%ebp), %eax
	addl	$4, %eax
	movl	(%eax), %eax
	testl	%eax, %eax
	jns	.L1081
.L1036:
	fldl	-256(%ebp)
	fmull	-48(%ebp)
	fldl	-248(%ebp)
	fldl	-248(%ebp)
	fmulp	%st, %st(1)
	faddp	%st, %st(1)
	fstpl	-256(%ebp)
	leal	-256(%ebp), %eax
	addl	$4, %eax
	movl	(%eax), %eax
	testl	%eax, %eax
	js	.L1082
.L1037:
	fldl	-248(%ebp)
	fstpl	-416(%ebp)
	fldl	-256(%ebp)
	fstpl	(%esp)
	call	sqrt
	fsubrl	-416(%ebp)
	fmull	-40(%ebp)
	fstpl	-248(%ebp)
	fldl	-248(%ebp)
	fldl	_ZL5gendt
	fucomip	%st(1), %st
	fstp	%st(0)
	jbe	.L1008
.L1069:
	fldl	-248(%ebp)
	fstpl	_ZL5gendt
	fldl	-192(%ebp)
	movl	68(%ebp), %eax
	fstpl	(%eax)
	fldl	-184(%ebp)
	movl	72(%ebp), %eax
	fstpl	(%eax)
	movl	76(%ebp), %eax
	fldl	-88(%ebp)
	fstpl	(%eax)
